Archive member included because of file (symbol)

./../../../psp_rel/lib/api.a(audio_device_op_entry.o)
                              (audio_device_op_entry)
./../../../psp_rel/lib/api.a(key_op_entry.o)
                              (key_op_entry)
./../../../psp_rel/lib/api.a(libc_op_entry.o)
                              ./../../../psp_rel/lib/lib_enhanced/eh_id3_function.o (libc_op_entry)
./../../../psp_rel/lib/api.a(sys_op_entry.o)
                              ./obj/plist_sort_al.o (sys_op_entry)
./../../../psp_rel/lib/api.a(vfs_op_entry.o)
                              ./../../../psp_rel/lib/lib_enhanced/eh_id3_function.o (vfs_op_entry)
./../../../psp_rel/lib/api.a(lcd_op_entry.o)
                              (lcd_op_entry)
./../../../psp_rel/lib/api.a(ui_op_entry.o)
                              ./obj/plist_main.o (ui_op_entry)
./../../../psp_rel/lib/api.a(base_op_entry.o)
                              (base_op_entry)

Memory Configuration

Name             Origin             Length             Attributes
*default*        0x0000000000000000 0xffffffffffffffff

Linker script and memory map

LOAD ./../../../psp_rel/include/link_base.xn
                0x0000000000000000                DRV_GROUP_STG_BASE = 0x0
                0x0000000000000001                DRV_GROUP_STG_CARD = 0x1
                0x0000000000000002                DRV_GROUP_STG_UHOST = 0x2
                0x0000000000000003                DRV_GROUP_FAT32 = 0x3
                0x0000000000000004                DRV_GROUP_EXFAT = 0x4
                0x0000000000000005                DRV_GROUP_UD = 0x5
                0x0000000000000006                DRV_GROUP_UI = 0x6
                0x0000000000000007                DRV_GROUP_LCD = 0x7
                0x0000000000000008                DRV_GROUP_FM = 0x8
                0x0000000000000009                DRV_GROUP_KEY = 0x9
                0x000000000000000a                DRV_GROUP_CCD = 0xa
                0x000000000000000b                DRV_GROUP_I2C = 0xb
                0x000000000000000c                DRV_GROUP_AUDIO_DEVICE = 0xc
                0x000000000000000d                DRV_GROUP_TTS = 0xd
                0x000000000000000e                DRV_GROUP_BT = 0xe
                0x000000000000000f                DRV_GROUP_SYS = 0xf
                0x000000000003ffff                SRAM_SIZE_MASK = 0x3ffff
                0x000000009fc00000                RDATA_ADDR_BASE = 0x9fc00000
                0x00000000bfc00000                RCODE_ADDR_BASE = 0xbfc00000
                0x0000000000000001                KERNEL_BANK_A = 0x1
                0x0000000000000002                KERNEL_BANK_B = 0x2
                0x0000000000000003                KERNEL_BANK_C = 0x3
                0x0000000000040000                BANK_SPACE = 0x40000
                0x0000000000000000                FRONT_AP = 0x0
                0x0000000000000001                BACK_AP = 0x1
                0x0000000000000002                PROCESS_MANAGER_AP = 0x2
                0x0000000000000000                FRONT_CODEC = 0x0
                0x0000000000000001                BACK_CODEC = 0x1
                0x0000000000000040                AP_BANK_FRONT_CONTROL_1 = 0x40
                0x0000000000000048                AP_BANK_FRONT_UI_1 = 0x48
                0x0000000000000050                AP_BANK_FRONT_BASAL = 0x50
                0x0000000000000058                AP_BANK_FRONT_CODEC = 0x58
                0x0000000000000060                AP_BANK_BACK_CONTROL_1 = 0x60
                0x0000000000000068                AP_BANK_BACK_BASAL = 0x68
                0x0000000000000070                AP_BANK_BACK_CODEC = 0x70
                0x0000000000000078                AP_BANK_FRONT_ENHANCED_1 = 0x78
                0x0000000000000071                AP_BANK_FRONT_ENHANCED_2 = 0x71
                0x000000000000007a                AP_BANK_BACK_ENHANCED_1 = 0x7a
                0x000000000000007b                AP_BANK_BACK_ENHANCED_2 = 0x7b
                0x0000000000000072                AP_BANK_BTENGINE_CONTROL_1 = 0x72
                0x0000000000000073                AP_BANK_BTENGINE_LIB_1 = 0x73
                0x0000000000000074                AP_BANK_BTENGINE_LIB_2 = 0x74
                0x0000000000000075                AP_BANK_BTENGINE_EXTEND_1 = 0x75
                0x0000000000000076                AP_BANK_BTENGINE_EXTEND_2 = 0x76
                0x0000000000000077                AP_BANK_BTENGINE_EXTEND_3 = 0x77
                0x000000000000007c                AP_BANK_BTENGINE_EXTEND_4 = 0x7c
                0x0000000000000079                AP_BANK_BTENGINE_EXTEND_5 = 0x79
                0x000000000000007f                AP_BANK_MANAGER = 0x7f
                0x0000000000000041                AP_BANK_AUTOTEST = 0x41
                0x0000000000000000                SROM_BROM_ADDR = 0x0
                0x0000000000002600                SROM_BROM_SIZE = 0x2600
                0x0000000000002600                SROM_SPINOR_ADDR = (SROM_BROM_ADDR + SROM_BROM_SIZE)
                0x0000000000000c00                SROM_SPINOR_SIZE = 0xc00
                0x0000000000003200                SROM_TWI_ADDR = (SROM_SPINOR_ADDR + SROM_SPINOR_SIZE)
                0x0000000000000700                SROM_TWI_SIZE = 0x700
                0x0000000000003900                SROM_STUB_ADDR = (SROM_TWI_ADDR + SROM_TWI_SIZE)
                0x0000000000000700                SROM_STUB_SIZE = 0x700
                0x0000000000000e00                SROM_SPINOR_SIZE_MDY = 0xe00
                0x0000000000003400                SROM_TWI_ADDR_MDY = (SROM_SPINOR_ADDR + SROM_SPINOR_SIZE_MDY)
                0x0000000000000700                SROM_TWI_SIZE_MDY = 0x700
                0x0000000000003b00                SROM_STUB_ADDR_MDY = (SROM_TWI_ADDR_MDY + SROM_TWI_SIZE_MDY)
                0x0000000000000500                SROM_STUB_SIZE_MDY = 0x500
                0x0000000000004000                SROM_KERNEL_ADDR = (SROM_STUB_ADDR + SROM_STUB_SIZE)
                0x0000000000004000                SROM_KERNEL_SIZE = 0x4000
                0x000000000000c000                SROM_FS_ADDR = 0xc000
                0x0000000000001c00                SROM_FS_SIZE = 0x1c00
                0x000000000000dc00                SROM_SPINOR1_ADDR = (SROM_FS_ADDR + SROM_FS_SIZE)
                0x0000000000000400                SROM_SPINOR1_SIZE = 0x400
                0x0000000000008000                SRAM_OS_RCODE_ADDR = 0x8000
                0x0000000000000c00                SRAM_OS_RCODE_SIZE = 0xc00
                0x0000000000008c00                SRAM_SPINOR_RCODE_ADDR = 0x8c00
                0x0000000000000400                SRAM_SPINOR_RCODE_SIZE = 0x400
                0x0000000000009000                SRAM_BANK_A_ADDR = 0x9000
                0x0000000000000400                SRAM_BANK_A_SIZE = 0x400
                0x0000000000009400                SRAM_BANK_B_ADDR = 0x9400
                0x0000000000000800                SRAM_BANK_B_SIZE = 0x800
                0x0000000000009c00                SRAM_UI_RCODE1_ADDR = 0x9c00
                0x0000000000000300                SRAM_UI_RCODE1_SIZE = 0x300
                0x0000000000009f00                SRAM_AUDIO_GLOBAL_DATA_ADDR = 0x9f00
                0x0000000000000060                SRAM_AUDIO_GLOBAL_DATA_SIZE = 0x60
                0x0000000000009f60                SRAM_UHOST_GLOBAL_DATA_ADDR = 0x9f60
                0x0000000000000010                SRAM_UHOST_GLOBAL_DATA_SIZE = 0x10
                0x0000000000009f70                SRAM_CARD_GLOBAL_DATA_ADDR = 0x9f70
                0x0000000000000010                SRAM_CARD_GLOBAL_DATA_SIZE = 0x10
                0x0000000000009f80                SRAM_SYS_SHARE_DATA_ADDR = 0x9f80
                0x0000000000000040                SRAM_SYS_SHARE_DATA_SIZE = 0x40
                0x0000000000009fc0                SRAM_RAM6_CCD_GLOBAL_DATA_ADDR = 0x9fc0
                0x0000000000000020                SRAM_RAM6_CCD_GLOBAL_DATA_SIZE = 0x20
                0x0000000000009fe0                SRAM_RAM6_RESEVER_ADDR = 0x9fe0
                0x0000000000000020                SRAM_RAM6_RESEVER_SIZE = 0x20
                0x000000000000a000                SRAM_LCD_RCODE_ADDR = 0xa000
                0x0000000000000800                SRAM_LCD_RCODE_SIZE = 0x800
                0x000000000000a800                SRAM_UI_RCODE2_ADDR = 0xa800
                0x0000000000001000                SRAM_UI_RCODE2_SIZE = 0x1000
                0x000000000000b800                SRAM_LCD_BUFFER_ADDR = 0xb800
                0x0000000000000400                SRAM_LCD_BUFFER_SIZE = 0x400
                0x000000000000bc00                SRAM_UI_DATA_ADDR = 0xbc00
                0x0000000000000400                SRAM_UI_DATA_SIZE = 0x400
                0x0000000000010000                SRAM_KEY_MESSAGE_RCODE_ADDR = 0x10000
                0x0000000000000a00                SRAM_KEY_MESSAGE_RCODE_SIZE = 0xa00
                0x0000000000010a00                SRAM_RAM0_RESEVER1_ADDR = 0x10a00
                0x0000000000000200                SRAM_RAM0_RESEVER1_SIZE = 0x200
                0x0000000000010c00                SRAM_AP_FRONT_BASAL_RCODE_ADDR = 0x10c00
                0x0000000000000100                SRAM_AP_FRONT_BASAL_RCODE_SIZE = 0x100
                0x0000000000010d00                SRAM_AP_BANK_BACK_CONTROL_ADDR = 0x10d00
                0x0000000000000800                SRAM_AP_BANK_BACK_CONTROL_SIZE = 0x800
                0x0000000000011500                SRAM_AP_BACK_RCODE_ADDR = 0x11500
                0x0000000000000800                SRAM_AP_BACK_RCODE_SIZE = 0x800
                0x0000000000000000                SRAM_AP_BANK_FRONT_CODEC_ADDR = 0x0
                0x0000000000000000                SRAM_AP_BANK_FRONT_CODEC_SIZE = 0x0
                0x0000000000011d00                SRAM_RAM0_RESEVER2_ADDR = 0x11d00
                0x0000000000000800                SRAM_RAM0_RESEVER2_SIZE = 0x800
                0x0000000000012500                SRAM_AP_BANK_FRONT_BASAL_ADDR = 0x12500
                0x0000000000000800                SRAM_AP_BANK_FRONT_BASAL_SIZE = 0x800
                0x0000000000012500                SRAM_AP_BANK_FRONT_ENHANCED_2_ADDR = SRAM_AP_BANK_FRONT_BASAL_ADDR
                0x0000000000000800                SRAM_AP_BANK_FRONT_ENHANCED_2_SIZE = SRAM_AP_BANK_FRONT_BASAL_SIZE
                0x0000000000012d00                SRAM_AP_BANK_BACK_BASAL_ADDR = 0x12d00
                0x0000000000000800                SRAM_AP_BANK_BACK_BASAL_SIZE = 0x800
                0x0000000000012d00                SRAM_AP_BANK_BACK_ENHANCED_1_ADDR = SRAM_AP_BANK_BACK_BASAL_ADDR
                0x0000000000000800                SRAM_AP_BANK_BACK_ENHANCED_1_SIZE = SRAM_AP_BANK_BACK_BASAL_SIZE
                0x0000000000013500                SRAM_AP_BACK_BASAL_RCODE_ADDR = 0x13500
                0x0000000000000800                SRAM_AP_BACK_BASAL_RCODE_SIZE = 0x800
                0x0000000000013d00                SRAM_KERNEL_BSS_ADDR = 0x13d00
                0x00000000000000e0                SRAM_KERNEL_BSS_SIZE = 0xe0
                0x0000000000013de0                SRAM_AP_MANAGER_ADDR = 0x13de0
                0x0000000000000200                SRAM_AP_MANAGER_SIZE = 0x200
                0x0000000000013fc0                SRAM_IRQ_DSP_PRINT_TEMP_ADDR = 0x13fc0
                0x0000000000000020                SRAM_IRQ_DSP_PRINT_TEMP_SIZE = 0x20
                0x0000000000013fe0                SRAM_IRQ_PRINT_BUFFER_ADDR = 0x13fe0
                0x0000000000000110                SRAM_IRQ_PRINT_BUFFER_SIZE = 0x110
                0x00000000000140f0                SRAM_DSP_PRINT_BUFFER_ADDR = 0x140f0
                0x0000000000000110                SRAM_DSP_PRINT_BUFFER_SIZE = 0x110
                0x0000000000014200                SRAM_LCD_DATA_ADDR = 0x14200
                0x0000000000000100                SRAM_LCD_DATA_SIZE = 0x100
                0x0000000000014300                SRAM_KEY_MESSAGE_DATA_ADDR = 0x14300
                0x0000000000000100                SRAM_KEY_MESSAGE_DATA_SIZE = 0x100
                0x0000000000014400                SRAM_AP_BANK_FRONT_UI_ADDR = 0x14400
                0x0000000000000800                SRAM_AP_BANK_FRONT_UI_SIZE = 0x800
                0x0000000000014c00                SRAM_AP_BANK_FRONT_CONTROL_ADDR = 0x14c00
                0x0000000000000800                SRAM_AP_BANK_FRONT_CONTROL_SIZE = 0x800
                0x0000000000015400                SRAM_AP_FRONT_DATA_ADDR = 0x15400
                0x0000000000000800                SRAM_AP_FRONT_DATA_SIZE = 0x800
                0x0000000000015c00                SRAM_AP_BACK_DATA_ADDR = 0x15c00
                0x0000000000000600                SRAM_AP_BACK_DATA_SIZE = 0x600
                0x0000000000016200                SRAM_AP_BANK_MANAGER_ADDR = 0x16200
                0x0000000000000200                SRAM_AP_BANK_MANAGER_SIZE = 0x200
                0x0000000000016400                SRAM_AP_FRONT_RCODE_ADDR = 0x16400
                0x0000000000000800                SRAM_AP_FRONT_RCODE_SIZE = 0x800
                0x0000000000016c00                SRAM_FS_RCODE_ADDR = 0x16c00
                0x0000000000000800                SRAM_FS_RCODE_SIZE = 0x800
                0x0000000000017400                SRAM_UI_RCODE3_ADDR = 0x17400
                0x0000000000000c00                SRAM_UI_RCODE3_SIZE = 0xc00
                0x0000000000017400                SRAM_CARD_UD_RCODE_ADDR = 0x17400
                0x0000000000000c00                SRAM_CARD_UD_RCODE_SIZE = 0xc00
                0x0000000000017400                SRAM_UHOST_UD_RCODE_ADDR = SRAM_CARD_UD_RCODE_ADDR
                0x0000000000000c00                SRAM_UHOST_UD_RCODE_SIZE = SRAM_CARD_UD_RCODE_SIZE
                0x0000000000018000                SRAM_FS_DATA_ADDR = 0x18000
                0x0000000000000300                SRAM_FS_DATA_SIZE = 0x300
                0x0000000000018300                SRAM_FS_BUF_ADDR = 0x18300
                0x0000000000000a00                SRAM_FS_BUF_SIZE = 0xa00
                0x0000000000018d00                SRAM_CARD_UD_CACHE_ADDR = 0x18d00
                0x0000000000000800                SRAM_CARD_UD_CACHE_SIZE = 0x800
                0x0000000000018d00                SRAM_UHOST_UD_CACHE_ADDR = SRAM_CARD_UD_CACHE_ADDR
                0x0000000000000800                SRAM_UHOST_UD_CACHE_SIZE = SRAM_CARD_UD_CACHE_SIZE
                0x0000000000019500                SRAM_CARD_DATA_ADDR = 0x19500
                0x0000000000000080                SRAM_CARD_DATA_SIZE = 0x80
                0x0000000000019500                SRAM_UHOST_DATA_ADDR = SRAM_CARD_DATA_ADDR
                0x0000000000000080                SRAM_UHOST_DATA_SIZE = SRAM_CARD_DATA_SIZE
                0x0000000000019580                SRAM_KERNEL_XSYS_ADDR = 0x19580
                0x0000000000000800                SRAM_KERNEL_XSYS_SIZE = 0x800
                0x0000000000019d80                SRAM_BANK_C_ADDR = 0x19d80
                0x0000000000000400                SRAM_BANK_C_SIZE = 0x400
                0x000000000001a180                SRAM_APPLIB_GLOBAL_DATA_ADDR = 0x1a180
                0x0000000000000100                SRAM_APPLIB_GLOBAL_DATA_SIZE = 0x100
                0x000000000001a280                SRAM_APPLIB_DATA_ADDR = 0x1a280
                0x0000000000000100                SRAM_APPLIB_DATA_SIZE = 0x100
                0x000000000001a380                SRAM_RAM1_RESEVER1_ADDR = 0x1a380
                0x0000000000000080                SRAM_RAM1_RESEVER1_SIZE = 0x80
                0x000000000001a400                SRAM_OS_DATA_ADDR = 0x1a400
                0x0000000000000880                SRAM_OS_DATA_SIZE = 0x880
                0x000000000001ac80                SRAM_OS_HEAP_ADDR = 0x1ac80
                0x0000000000000580                SRAM_OS_HEAP_SIZE = 0x580
                0x000000000001b200                SRAM_AP_BANK_FRONT_ENHANCED_1_ADDR = 0x1b200
                0x0000000000000800                SRAM_AP_BANK_FRONT_ENHANCED_1_SIZE = 0x800
                0x000000000001b200                SRAM_FM_DRV_RCODE_ADDR = SRAM_AP_BANK_FRONT_ENHANCED_1_ADDR
                0x0000000000000800                SRAM_FM_DRV_RCODE_SIZE = SRAM_AP_BANK_FRONT_ENHANCED_1_SIZE
                0x000000000001ba00                SRAM_OS_SD_SWAP_BUF_ADDR = 0x1ba00
                0x0000000000000200                SRAM_OS_SD_SWAP_BUF_SIZE = 0x200
                0x000000000001bc00                SRAM_OS_TASK_STACK_ADDR = 0x1bc00
                0x0000000000001a00                SRAM_OS_TASK_STACK_SIZE = 0x1a00
                0x000000000001d600                SRAM_OS_SYS_STACK_ADDR = 0x1d600
                0x0000000000000400                SRAM_OS_SYS_STACK_SIZE = 0x400
                0x000000000001da00                SRAM_RAM1_RESEVER2_ADDR = 0x1da00
                0x0000000000000600                SRAM_RAM1_RESEVER1_SIZE = 0x600
                0x0000000000027000                SRAM_AP_BACK_CODEC_RCODE_ADDR = 0x27000
                0x0000000000001000                SRAM_AP_BACK_CODEC_RCODE_SIZE = 0x1000
                0x0000000000028000                SRAM_AP_BANK_BACK_CODEC_ADDR = 0x28000
                0x0000000000001000                SRAM_AP_BANK_BACK_CODEC_SIZE = 0x1000
                0x0000000000028000                SRAM_AP_BANK_BACK_ENHANCED_2_ADDR = 0x28000
                0x0000000000000800                SRAM_AP_BANK_BACK_ENHANCED_2_SIZE = 0x800
                0x0000000000030000                SRAM_AP_USB_DEVICE_RCODE_ADDR = 0x30000
                0x0000000000004000                SRAM_AP_USB_DEVICE_RCODE_SIZE = 0x4000
                0x0000000000038000                SRAM_TWI_ADDR_MDY = 0x38000
                0x0000000000000700                SRAM_TWI_SIZE_MDY = SROM_TWI_SIZE_MDY
                0x0000000000040000                SRAM_INVALID_RCODE_ADDR = 0x40000
                0x0000000000000000                AP_INDEX = FRONT_AP
                0x0000000000016400                SRAM_TEXT_ADDR = SRAM_AP_FRONT_RCODE_ADDR
                0x0000000000015400                SRAM_DATA_ADDR = SRAM_AP_FRONT_DATA_ADDR
                0x00000000bfc16400                RCODE_TEXT_ADDR = (RCODE_ADDR_BASE + SRAM_TEXT_ADDR)
                0x000000009fc15400                RDATA_DATA_ADDR = (RDATA_ADDR_BASE + SRAM_DATA_ADDR)
                0x00000000bfc11d00                RCODE_TEXT_ADDR1 = (RCODE_ADDR_BASE + 0x11d00)
                0x0000000040014c00                BANK_CONTROL_1_ADDR_BASE = ((AP_BANK_FRONT_CONTROL_1 << 0x18) + SRAM_AP_BANK_FRONT_CONTROL_ADDR)
                0x0000000048014400                BANK_UI_1_ADDR_BASE = ((AP_BANK_FRONT_UI_1 << 0x18) + SRAM_AP_BANK_FRONT_UI_ADDR)
                0x000000007801b200                BANK_FRONT_ENHANCED_1_ADDR_BASE = ((AP_BANK_FRONT_ENHANCED_1 << 0x18) + SRAM_AP_BANK_FRONT_ENHANCED_1_ADDR)
                0x0000000071012500                BANK_FRONT_ENHANCED_2_ADDR_BASE = ((AP_BANK_FRONT_ENHANCED_2 << 0x18) + SRAM_AP_BANK_FRONT_ENHANCED_2_ADDR)
                0x0000000000000800                BANK_CONTROL_SIZE = SRAM_AP_BANK_FRONT_CONTROL_SIZE
                0x0000000000000800                BANK_UI_SIZE = SRAM_AP_BANK_FRONT_UI_SIZE
                0x0000000000000800                BANK_FRONT_ENHANCED1_SIZE = SRAM_AP_BANK_FRONT_ENHANCED_1_SIZE
                0x0000000000000800                BANK_FRONT_ENHANCED2_SIZE = SRAM_AP_BANK_FRONT_ENHANCED_2_SIZE
                0x0000000000040000                AP_BANK_SPACE = BANK_SPACE
                0x000000009fc1a180                . = 0x9fc1a180

APP_GLOBE_DATA  0x000000009fc1a180      0x100
 applib_globe_data.o(.bss)
 .bss           0x000000009fc1a180       0x6c ./../../lib/applib_globe_data.o
                0x000000009fc1a180                g_sys_counter
                0x000000009fc1a194                g_app_info_vector
                0x000000009fc1a1e8                g_sys_shutdown_time
                0x000000009fc1a1dc                g_keytone_infor
                0x000000009fc1a190                config_fp
                0x000000009fc1a1b8                g_app_info_state
                0x000000009fc1a1e5                g_sys_time_second
                0x000000009fc1a1d0                g_app_last_state
 applib_app_data.o(.bss)
 .bss           0x000000009fc1a1ec       0x18 ./../../lib/applib_app_data.o
                0x000000009fc1a1f8                g_this_app_msg_dispatch
                0x000000009fc1a1fc                g_app_timer_vector
                0x000000009fc1a1ec                g_app_timer_count
                0x000000009fc1a1f0                g_this_app_info
                0x000000009fc1a1f4                thread_mutex
                0x000000009fc1a200                g_this_app_timer_tag
                0x000000009fc1a280                . = 0x100
 *fill*         0x000000009fc1a204       0x7c 00

.text1          0x00000000bfc11d00      0x800
 eh_id3_function.o(.text .rodata .xdata)
 .text          0x00000000bfc11d00      0x490 ./../../../psp_rel/lib/lib_enhanced/eh_id3_function.o
                0x00000000bfc120b9                check_id3_buffer
 .rodata        0x00000000bfc12190       0x64 ./../../../psp_rel/lib/lib_enhanced/eh_id3_function.o
 .xdata         0x00000000bfc121f4       0x60 ./../../../psp_rel/lib/lib_enhanced/eh_id3_function.o
 plist_sort_al.o(.rodata .xdata)
 .xdata         0x00000000bfc12254      0x25c ./obj/plist_sort_al.o
                0x00000000bfc12500                . = 0x800
 *fill*         0x00000000bfc124b0       0x50 00

.text           0x00000000bfc16400      0x7b8
 api.a(.text .rodata)
 .text          0x00000000bfc16400        0x4 ./../../../psp_rel/lib/api.a(audio_device_op_entry.o)
                0x00000000bfc16401                audio_device_op_entry
 .text          0x00000000bfc16404        0x4 ./../../../psp_rel/lib/api.a(key_op_entry.o)
                0x00000000bfc16405                key_op_entry
 .text          0x00000000bfc16408        0x4 ./../../../psp_rel/lib/api.a(libc_op_entry.o)
                0x00000000bfc16409                libc_op_entry
 .text          0x00000000bfc1640c        0x4 ./../../../psp_rel/lib/api.a(sys_op_entry.o)
                0x00000000bfc1640d                sys_op_entry
 .text          0x00000000bfc16410        0x4 ./../../../psp_rel/lib/api.a(vfs_op_entry.o)
                0x00000000bfc16411                vfs_op_entry
 plist_rcode.o(.text .rodata .xdata)
 .text          0x00000000bfc16414      0x2b8 ./obj/plist_rcode.o
                0x00000000bfc165e9                plist_get_app_msg
                0x00000000bfc1653d                read_from_file
                0x00000000bfc16491                write_to_file
                0x00000000bfc16415                save_to_file
 .rodata        0x00000000bfc166cc        0x8 ./obj/plist_rcode.o
                0x00000000bfc166cc                m3u_ext_buf
 message_rcode.o(.text)
 .text          0x00000000bfc166d4       0xb4 ./../../lib/message_rcode.o
                0x00000000bfc166d5                get_gui_msg
                0x00000000bfc16741                get_app_msg
                0x00000000bfc1670d                get_sys_msg
 plist_fsel.o(.text .rodata .xdata)
 .text          0x00000000bfc16788      0x350 ./obj/plist_fsel.o
                0x00000000bfc16881                plist_fsel_get_nextfile
                0x00000000bfc167dd                plist_fsel_set_typebit
                0x00000000bfc16789                plist_fsel_init
 .rodata        0x00000000bfc16ad8        0xc ./obj/plist_fsel.o
 .xdata         0x00000000bfc16ae4        0xc ./obj/plist_fsel.o
 app_timer_rcode.o(.text)
 .text          0x00000000bfc16af0       0xbc ./../../lib/app_timer_rcode.o
                0x00000000bfc16af1                handle_timers
 .text          0x00000000bfc16bac        0x4 ./../../../psp_rel/lib/api.a(lcd_op_entry.o)
                0x00000000bfc16bad                lcd_op_entry
 .text          0x00000000bfc16bb0        0x4 ./../../../psp_rel/lib/api.a(ui_op_entry.o)
                0x00000000bfc16bb1                ui_op_entry
 .text          0x00000000bfc16bb4        0x4 ./../../../psp_rel/lib/api.a(base_op_entry.o)
                0x00000000bfc16bb5                base_op_entry

.data           0x000000009fc15400        0x8 load address 0x00000000bfc16bb8
 plist_rdata.o(.data)
 .data          0x000000009fc15400        0x8 ./obj/plist_rdata.o
                0x000000009fc15404                prio
                0x000000009fc15400                ptos
                0x000000009fc15406                ap_plist_sorting_level
 eh_rdata.o(.data)
 eh_id3_rdata.o(.data)

.bss            0x000000009fc15408      0x870
 plist_rdata.o(.bss)
 .bss           0x000000009fc15408      0x640 ./obj/plist_rdata.o
                0x000000009fc15894                file_buffer
                0x000000009fc15658                compare_obj
                0x000000009fc15a28                sort_cmp_len
                0x000000009fc155e4                ap_son_tree_offset
                0x000000009fc15a44                filepos_p
                0x000000009fc15620                genre_file_pt
                0x000000009fc15574                g_comval
                0x000000009fc15594                cmu_memclksel_bak
                0x000000009fc1559a                ap_plist_file_offset
                0x000000009fc1562c                fileinfo_data_pt
                0x000000009fc1568c                audible_f_p
                0x000000009fc1540c                sorting_map_level_4k
                0x000000009fc15a24                ui_precent_count
                0x000000009fc15614                title_file_pt
                0x000000009fc15624                track_file_pt
                0x000000009fc15654                index_parent_buf
                0x000000009fc15480                sorting_map_level_8k
                0x000000009fc15688                music_f_p
                0x000000009fc15a3c                m3u_ext_name
                0x000000009fc15a38                m3u_obj_name_buf
                0x000000009fc15a27                cpu_release_count
                0x000000009fc15a2b                fsel_scan_flag
                0x000000009fc15628                title_data_pt
                0x000000009fc1560c                sort_file_total
                0x000000009fc15568                language_id
                0x000000009fc15630                track_data_pt
                0x000000009fc155c0                ap_son_tree_num
                0x000000009fc15a34                m3u_get_name_buf
                0x000000009fc15694                temp_plist_buf
                0x000000009fc1559c                ap_file_index_offset
                0x000000009fc15a29                lib_num
                0x000000009fc15608                track_buf
                0x000000009fc15994                plist_lib_offset
                0x000000009fc15610                sort_depend_buf
                0x000000009fc15618                album_file_pt
                0x000000009fc154f4                sorting_map_level_16k
                0x000000009fc15638                tidy_buf_a
                0x000000009fc15650                count_buf_c
                0x000000009fc155b4                ap_index_parent_offset
                0x000000009fc155a8                ap_sort_index_offset
                0x000000009fc1556a                ap_pos_file_offset
                0x000000009fc15634                resort_data
                0x000000009fc15644                sort_index_buf
                0x000000009fc15590                cmu_memclken_bak
                0x000000009fc15a40                m3u_dat_file_pt
                0x000000009fc15a2a                drv_sn
                0x000000009fc15408                sorting_map_level_cur
                0x000000009fc159cc                track_string_buf
                0x000000009fc15a26                ui_cur_strID
                0x000000009fc15570                ap_vfs_mount
                0x000000009fc1564c                count_buf_b
                0x000000009fc15690                other_f_p
                0x000000009fc15a25                ui_icon_count
                0x000000009fc15640                file_index_buf
                0x000000009fc1565c                id3_file_info
                0x000000009fc1556c                ap_obj_handle
                0x000000009fc15a2e                m3u_curpos_offset
                0x000000009fc1561c                artist_file_pt
                0x000000009fc15a2c                m3u_cursec_num
                0x000000009fc15598                ap_plist_file_total
                0x000000009fc15648                count_buf_a
                0x000000009fc159d4                playlist_app_timer_vector
                0x000000009fc15a30                m3u_handle
                0x000000009fc1563c                tidy_buf_b
 common_ui_data.o(.bss)
 .bss           0x000000009fc15a48      0x18c ./../../lib/common_ui_data.o
                0x000000009fc15b99                g_icon_id
                0x000000009fc15afc                g_menu_items
                0x000000009fc15bc8                g_anm_callback
                0x000000009fc15bd1                g_anm_direction
                0x000000009fc15a4e                g_gui_direct
                0x000000009fc15ba0                this_headbar_style
                0x000000009fc15bbb                g_ss_last_time
                0x000000009fc15bd0                g_anm_index
                0x000000009fc15bbd                g_ss_delay_flag
                0x000000009fc15ab0                dir_menu_title
                0x000000009fc15bcc                g_anm_sty_infor
                0x000000009fc15b9c                g_headbar_update
                0x000000009fc15b88                g_back_to_parent_func
                0x000000009fc15a4d                sys_status_timer_id
                0x000000009fc15bb0                g_ss_mode_backup
                0x000000009fc15b90                usb_selecting_state
                0x000000009fc15b8c                g_back_to_parant_arg
                0x000000009fc15bc0                g_com_paint_cb
                0x000000009fc15a48                sys_comval
                0x000000009fc15bb9                g_ss_album_art_phase
                0x000000009fc15bb4                g_ss_clk_backup
                0x000000009fc15bba                g_ss_last_date
                0x000000009fc15bad                this_headbar_mode
                0x000000009fc15bb1                g_ss_icon_backup
                0x000000009fc15b94                volume_value_last
                0x000000009fc15bae                g_so_time
                0x000000009fc15abc                dir_control
                0x000000009fc15b92                g_usb_timer_id
                0x000000009fc15bb2                g_ss_timer_id
                0x000000009fc15b91                g_usb_auto_select
                0x000000009fc15a4c                sys_counter_timer_id
                0x000000009fc15b9b                g_battery_value
                0x000000009fc15a50                g_dir_browser
                0x000000009fc15ad4                last_dir_control
                0x000000009fc15b96                volume_enter_forbidden
                0x000000009fc15bb8                g_ss_mode
                0x000000009fc15bac                this_headbar_icon_id
                0x000000009fc15b9a                g_sys_minute
                0x000000009fc15aee                line_cnt
                0x000000009fc15a5c                g_file_list
                0x000000009fc15aec                speed_control
                0x000000009fc15b98                g_battery_display
                0x000000009fc15bbc                g_ss_vip_event
                0x000000009fc15baf                g_ss_tag_backup
                0x000000009fc15bbe                g_kl_time_is_up
                0x000000009fc15b97                g_vol_time_up_flag
                0x000000009fc15af0                g_menu_title
 common_func_data.o(.bss)
 .bss           0x000000009fc15bd4       0x18 ./../../lib/common_func_data.o
                0x000000009fc15bdd                menu_history_valid
                0x000000009fc15be0                dir_history_addr
                0x000000009fc15bd8                confmenu_offset
                0x000000009fc15be9                g_keytone_backup
                0x000000009fc15bd4                confmenu_fp
                0x000000009fc15be8                this_filter_key_value
                0x000000009fc15be4                menu_history_addr
                0x000000009fc15bdc                dir_history_valid
 eh_rdata.o(.bss)
 .bss           0x000000009fc15bec       0x88 ./../../../psp_rel/lib/lib_enhanced/eh_rdata.o
                0x000000009fc15c38                plist_list_layerno
                0x000000009fc15bf4                file_total
                0x000000009fc15c52                dir_total
                0x000000009fc15c32                plist_file_total
                0x000000009fc15c12                write_data_flag
                0x000000009fc15c1c                plist_item_info
                0x000000009fc15c00                obj_handle
                0x000000009fc15c46                plist_layer_offset
                0x000000009fc15bed                fsel_module_type
                0x000000009fc15c5a                dirlist_cur_file_folder_index
                0x000000009fc15c1a                uspl_file_offset
                0x000000009fc15bfc                root_dir
                0x000000009fc15c50                m3u_curlist_index
                0x000000009fc15c30                plist_type_selector
                0x000000009fc15c60                dirlist_index_tbl
                0x000000009fc15c18                uspl_last_offset
                0x000000009fc15c54                dirlist_first_offset
                0x000000009fc15c10                save_read_offset
                0x000000009fc15c5c                dirlist_layer_offset
                0x000000009fc15c42                plist_start_file_index
                0x000000009fc15c16                uspl_first_offset
                0x000000009fc15c08                fsel_init_val
                0x000000009fc15c04                vfs_mount
                0x000000009fc15bf8                cur_ext_name
                0x000000009fc15c44                plist_cur_file_index
                0x000000009fc15bf2                file_no
                0x000000009fc15c14                uspl_file_total
                0x000000009fc15bf0                shuffle_sw
                0x000000009fc15c58                dirlist_file_offset
                0x000000009fc15c40                plist_start_sort_index
                0x000000009fc15bec                loop_flag
                0x000000009fc15bef                dir_layer
                0x000000009fc15c34                plist_info_offset
                0x000000009fc15bfe                obj_open_mode
                0x000000009fc15bff                obj_open_type
                0x000000009fc15c48                lib_pfile_offset
                0x000000009fc15c56                dirlist_file_index_offset
                0x000000009fc15bee                fsel_error
                0x000000009fc15bf6                g_file_index
 eh_id3_rdata.o(.bss)
 .bss           0x000000009fc15c74        0x4 ./../../../psp_rel/lib/lib_enhanced/eh_id3_rdata.o
                0x000000009fc15c74                id3_handle
 *(.sbss)
 *(.common)
 *(common)
                0x0000000040014c00                . = BANK_CONTROL_1_ADDR_BASE
                0x0000000000014c00                OFFSET = (. & 0x3ffff)

BANK_CONTROL_1_0
                0x0000000040014c00      0x800
 ctor.o(.text .rodata)
 .text          0x0000000040014c00       0xcc ./../../../psp_rel/lib/ctor.o
                0x0000000040014c01                process_start
                0x0000000040014c31                __start
                0x0000000000000800                . = BANK_CONTROL_SIZE
 *fill*         0x0000000040014ccc      0x734 00
                0x0000000040054400                . = (((. + AP_BANK_SPACE) & ~ ((AP_BANK_SPACE - 0x1))) + OFFSET)

BANK_FORNT_CONTROL_1_1
                0x0000000040054c00      0x800
 plist_main.o(.text .rodata .xdata)
 .text          0x0000000040054c00      0x764 ./obj/plist_main.o
                0x0000000040055125                init_mem_by_songs_num
                0x00000000400551d5                init_mem_by_songs_16k
                0x0000000040054c55                main
                0x0000000040054c01                _read_var
                0x0000000040055069                init_sys_data
 .rodata        0x0000000040055364       0x38 ./obj/plist_main.o
 .xdata         0x000000004005539c        0x8 ./obj/plist_main.o
                0x0000000000000800                . = BANK_CONTROL_SIZE
 *fill*         0x00000000400553a4       0x5c 00
                0x0000000040094400                . = (((. + AP_BANK_SPACE) & ~ ((AP_BANK_SPACE - 0x1))) + OFFSET)

BANK_FORNT_CONTROL_1_2
                0x0000000040094c00      0x800
 plist_scan_music.o(.text .rodata .xdata)
 .text          0x0000000040094c00      0x7b4 ./obj/plist_scan_music.o
                0x0000000040094f3d                get_music_info
                0x0000000040094ffd                store_music_info
                0x000000004009529d                scan_music_file
 .rodata        0x00000000400953b4       0x24 ./obj/plist_scan_music.o
                0x0000000000000800                . = BANK_CONTROL_SIZE
 *fill*         0x00000000400953d8       0x28 00
                0x00000000400d4400                . = (((. + AP_BANK_SPACE) & ~ ((AP_BANK_SPACE - 0x1))) + OFFSET)

BANK_FORNT_CONTROL_1_3
                0x00000000400d4c00      0x800
 plist_sort_music.o(.text .rodata .xdata)
 .text          0x00000000400d4c00      0x7f8 ./obj/plist_sort_music.o
                0x00000000400d533d                sort_music_list
                0x0000000000000800                . = BANK_CONTROL_SIZE
 *fill*         0x00000000400d53f8        0x8 00
                0x0000000040114400                . = (((. + AP_BANK_SPACE) & ~ ((AP_BANK_SPACE - 0x1))) + OFFSET)

BANK_FORNT_CONTROL_1_4
                0x0000000040114c00      0x800
 plist_sort_music_sub.o(.text .rodata .xdata)
 .text          0x0000000040114c00      0x628 ./obj/plist_sort_music_sub.o
                0x0000000040114d9d                read_string
                0x0000000040114c01                _init_sorting_map_level_8k
                0x0000000040114ef1                list_resort
                0x0000000040114d29                _init_sorting_map_level_16k
                0x0000000000000800                . = BANK_CONTROL_SIZE
 *fill*         0x0000000040115228      0x1d8 00
                0x0000000040154400                . = (((. + AP_BANK_SPACE) & ~ ((AP_BANK_SPACE - 0x1))) + OFFSET)

BANK_FORNT_CONTROL_1_5
                0x0000000040154c00      0x800
 plist_other_list.o(.text .rodata .xdata)
 .text          0x0000000040154c00      0x528 ./obj/plist_other_list.o
                0x0000000040154fe5                sort_others_list
                0x0000000040154ecd                scan_others_info
 .rodata        0x0000000040155128        0x8 ./obj/plist_other_list.o
                0x0000000000000800                . = BANK_CONTROL_SIZE
 *fill*         0x0000000040155130      0x2d0 00
                0x0000000040194400                . = (((. + AP_BANK_SPACE) & ~ ((AP_BANK_SPACE - 0x1))) + OFFSET)

BANK_FORNT_CONTROL_1_6
                0x0000000040194c00      0x800
 plist_operate_list.o(.text .rodata .xdata)
 .text          0x0000000040194c00      0x66c ./obj/plist_operate_list.o
                0x0000000040194c65                delete_lib_file
                0x0000000040194c79                creat_plist_lib
                0x0000000040195025                close_plist_lib
 .rodata        0x000000004019526c       0xb0 ./obj/plist_operate_list.o
                0x0000000000000800                . = BANK_CONTROL_SIZE
 *fill*         0x000000004019531c       0xe4 00
                0x00000000401d4400                . = (((. + AP_BANK_SPACE) & ~ ((AP_BANK_SPACE - 0x1))) + OFFSET)

BANK_FORNT_CONTROL_1_7
                0x00000000401d4c00      0x800
 plist_ui_deal.o(.text .rodata .xdata)
 .text          0x00000000401d4c00      0x27c ./obj/plist_ui_deal.o
                0x00000000401d4c01                plist_reflash_string
                0x00000000401d4cb1                plist_reflash_progress
                0x00000000401d4c59                plist_timer_proc
                0x00000000401d4da1                _app_display_init
 .rodata        0x00000000401d4e7c       0x38 ./obj/plist_ui_deal.o
                0x0000000000000800                . = BANK_CONTROL_SIZE
 *fill*         0x00000000401d4eb4      0x54c 00
                0x0000000040214400                . = (((. + AP_BANK_SPACE) & ~ ((AP_BANK_SPACE - 0x1))) + OFFSET)

BANK_FORNT_CONTROL_1_8
                0x0000000040214c00      0x800
 plist_m3u_deal.o(.text .rodata .xdata)
 .text          0x0000000040214c00      0x4b4 ./obj/plist_m3u_deal.o
                0x0000000040214fe1                read_m3u_data
                0x0000000040215071                set_m3ufile_path
                0x0000000040214d39                parse_ext_name
                0x0000000040214dad                parse_obj_name
                0x0000000040214c01                check_ext_bitmap
                0x0000000040214f25                compare_name
                0x0000000040214c69                check_m3u_exist
 .rodata        0x00000000402150b4       0x94 ./obj/plist_m3u_deal.o
                0x0000000000000800                . = BANK_CONTROL_SIZE
 *fill*         0x0000000040215148      0x2b8 00
                0x0000000040254400                . = (((. + AP_BANK_SPACE) & ~ ((AP_BANK_SPACE - 0x1))) + OFFSET)

BANK_FORNT_CONTROL_1_9
                0x0000000040254c00      0x800
 plist_creat_albumart_file.o(.text .rodata .xdata)
 .text          0x0000000040254c00      0x1fc ./obj/plist_creat_albumart_file.o
                0x0000000040254c65                creat_album_pic
 .rodata        0x0000000040254dfc       0x18 ./obj/plist_creat_albumart_file.o
                0x0000000000000800                . = BANK_CONTROL_SIZE
 *fill*         0x0000000040254e14      0x5ec 00
                0x0000000040294400                . = (((. + AP_BANK_SPACE) & ~ ((AP_BANK_SPACE - 0x1))) + OFFSET)

BANK_FORNT_CONTROL_1_10
                0x0000000040294c00      0x800
 plist_sort_method.o(.text .rodata .xdata)
 .text          0x0000000040294c00      0x6a8 ./obj/plist_sort_method.o
                0x0000000040294ecd                tidy_son_table
                0x0000000040295101                creat_plist_tree
                0x0000000040294cb9                _init_sorting_map_level_4k
                0x0000000040294e19                tidy_same_table
                0x00000000402950a9                creat_index_map
                0x0000000040294de1                init_file_index
                0x0000000040294c01                set_sorting_level
                0x0000000040294f55                build_ex_index
                0x000000004029500d                tidy_son_unit
                0x0000000040294f95                son_sort_index
                0x0000000000000800                . = BANK_CONTROL_SIZE
 *fill*         0x00000000402952a8      0x158 00
                0x00000000402d4400                . = (((. + AP_BANK_SPACE) & ~ ((AP_BANK_SPACE - 0x1))) + OFFSET)

BANK_FORNT_CONTROL_1_11
                0x00000000402d4c00      0x800
 plist_scan_audible.o(.text .rodata .xdata)
 .text          0x00000000402d4c00      0x598 ./obj/plist_scan_audible.o
                0x00000000402d50ad                scan_audible_file
 .rodata        0x00000000402d5198        0xc ./obj/plist_scan_audible.o
                0x0000000000000800                . = BANK_CONTROL_SIZE
 *fill*         0x00000000402d51a4      0x25c 00
                0x0000000040314400                . = (((. + AP_BANK_SPACE) & ~ ((AP_BANK_SPACE - 0x1))) + OFFSET)

BANK_FORNT_CONTROL_1_12
                0x0000000040314c00      0x800
 plist_sort_audible.o(.text .rodata .xdata)
 .text          0x0000000040314c00      0x2b4 ./obj/plist_sort_audible.o
                0x0000000040314e51                sort_audible_list
                0x0000000000000800                . = BANK_CONTROL_SIZE
 *fill*         0x0000000040314eb4      0x54c 00
                0x0000000048014400                . = BANK_UI_1_ADDR_BASE
                0x0000000000014400                OFFSET = (. & 0x3ffff)

BANK_UI_1_0     0x0000000048014400      0x800
 plist_scan_func.o(.text .rodata .xdata)
 .text          0x0000000048014400      0x2d4 ./obj/plist_scan_func.o
                0x0000000048014535                unicode_to_char
                0x0000000048014401                check_id3_type
                0x00000000480145dd                alltype_to_char
                0x0000000048014695                copy_deal_string
                0x0000000048014589                utf8_to_char
                0x0000000048014561                char_to_unicode
                0x0000000000000800                . = BANK_UI_SIZE
 *fill*         0x00000000480146d4      0x52c 00
                0x0000000048054400                . = (((. + AP_BANK_SPACE) & ~ ((AP_BANK_SPACE - 0x1))) + OFFSET)

BANK_UI_1_1     0x0000000048054400      0x800
 plist_creat_userpl.o(.text .rodata .xdata)
 .text          0x0000000048054400      0x308 ./obj/plist_creat_userpl.o
                0x0000000048054465                creat_userpl_table
 .rodata        0x0000000048054708       0x48 ./obj/plist_creat_userpl.o
                0x0000000000000800                . = BANK_UI_SIZE
 *fill*         0x0000000048054750      0x4b0 00
                0x0000000048094400                . = (((. + AP_BANK_SPACE) & ~ ((AP_BANK_SPACE - 0x1))) + OFFSET)

BANK_UI_1_2     0x0000000048094400      0x800
 plist_sys_deal.o(.text .rodata .xdata)
 .text          0x0000000048094400      0x248 ./obj/plist_sys_deal.o
                0x0000000048094625                plist_sys_exit
                0x000000004809460d                plist_sys_init
                0x0000000048094549                _deal_playlist_result
 .rodata        0x0000000048094648       0x20 ./obj/plist_sys_deal.o
                0x0000000000000800                . = BANK_UI_SIZE
 *fill*         0x0000000048094668      0x598 00
                0x00000000480d4400                . = (((. + AP_BANK_SPACE) & ~ ((AP_BANK_SPACE - 0x1))) + OFFSET)

BANK_UI_1_3     0x00000000480d4400      0x800
 plist_m3u_deal_sub.o(.text .rodata .xdata)
 .text          0x00000000480d4400      0x758 ./obj/plist_m3u_deal_sub.o
                0x00000000480d4401                check_filepos_exist
                0x00000000480d45e9                parse_m3u_file
                0x0000000000000800                . = BANK_UI_SIZE
 *fill*         0x00000000480d4b58       0xa8 00
                0x0000000048114400                . = (((. + AP_BANK_SPACE) & ~ ((AP_BANK_SPACE - 0x1))) + OFFSET)

BANK_UI_1_4     0x0000000048114400      0x800
 plist_m3u_deal_sub1.o(.text .rodata .xdata)
 .text          0x0000000048114400      0x370 ./obj/plist_m3u_deal_sub1.o
                0x0000000048114401                wirte_m3u_dat
                0x0000000000000800                . = BANK_UI_SIZE
 *fill*         0x0000000048114770      0x490 00
                0x0000000048154400                . = (((. + AP_BANK_SPACE) & ~ ((AP_BANK_SPACE - 0x1))) + OFFSET)

BANK_UI_1_5     0x0000000048154400      0x800
 plist_creat_bmk.o(.text .rodata .xdata)
 .text          0x0000000048154400      0x22c ./obj/plist_creat_bmk.o
                0x0000000048154519                check_bookmark_exist
 .rodata        0x000000004815462c       0x1c ./obj/plist_creat_bmk.o
 .xdata         0x0000000048154648        0x4 ./obj/plist_creat_bmk.o
                0x0000000048154648                g_bookmark_fp
                0x0000000000000800                . = BANK_UI_SIZE
 *fill*         0x000000004815464c      0x5b4 00
                0x000000007881b200                . = (BANK_FRONT_ENHANCED_1_ADDR_BASE + (AP_BANK_SPACE * 0x20))
                0x000000000001b200                OFFSET = (. & 0x3ffff)

BANK_FORNT_ENHANCED_1_32
                0x000000007881b200      0x800
 plist_creat_userpl_sub.o(.text .rodata .xdata)
 .text          0x000000007881b200      0x434 ./obj/plist_creat_userpl_sub.o
                0x000000007881b519                reflash_userpl_table
                0x000000007881b485                init_userpl_table
                0x000000007881b331                fav_opt_delete_sub
 .xdata         0x000000007881b634       0x1c ./obj/plist_creat_userpl_sub.o
                0x000000007881b63c                fav_opt_user_pl_head
                0x000000007881b64c                fav_save_read_offset
                0x0000000000000800                . = BANK_FRONT_ENHANCED1_SIZE
 *fill*         0x000000007881b650      0x3b0 00
                0x0000000078854400                . = (((. + AP_BANK_SPACE) & ~ ((AP_BANK_SPACE - 0x1))) + OFFSET)
                0x0000000071812500                . = (BANK_FRONT_ENHANCED_2_ADDR_BASE + (AP_BANK_SPACE * 0x20))
                0x0000000000012500                OFFSET = (. & 0x3ffff)

BANK_FORNT_ENHANCED_2_32
                0x0000000071812500      0x800
 plist_sort_al.o(.text)
 .text          0x0000000071812500      0x5c4 ./obj/plist_sort_al.o
                0x0000000071812789                swap
                0x00000000718127cd                shortsort
                0x0000000071812549                compare_string
                0x0000000071812501                get_string_data
                0x00000000718126c1                compare_album_track
                0x0000000071812875                list_sort
                0x0000000071812651                compare_word
                0x0000000000000800                . = BANK_FRONT_ENHANCED2_SIZE
 *fill*         0x0000000071812ac4      0x23c 00
LOAD ./../../../psp_rel/usermodule/enhanced/case_link_xn/id3_link.xn
LOAD ./../../../psp_rel/include/link_base.xn
                0x0000000000000000                DRV_GROUP_STG_BASE = 0x0
                0x0000000000000001                DRV_GROUP_STG_CARD = 0x1
                0x0000000000000002                DRV_GROUP_STG_UHOST = 0x2
                0x0000000000000003                DRV_GROUP_FAT32 = 0x3
                0x0000000000000004                DRV_GROUP_EXFAT = 0x4
                0x0000000000000005                DRV_GROUP_UD = 0x5
                0x0000000000000006                DRV_GROUP_UI = 0x6
                0x0000000000000007                DRV_GROUP_LCD = 0x7
                0x0000000000000008                DRV_GROUP_FM = 0x8
                0x0000000000000009                DRV_GROUP_KEY = 0x9
                0x000000000000000a                DRV_GROUP_CCD = 0xa
                0x000000000000000b                DRV_GROUP_I2C = 0xb
                0x000000000000000c                DRV_GROUP_AUDIO_DEVICE = 0xc
                0x000000000000000d                DRV_GROUP_TTS = 0xd
                0x000000000000000e                DRV_GROUP_BT = 0xe
                0x000000000000000f                DRV_GROUP_SYS = 0xf
                0x000000000003ffff                SRAM_SIZE_MASK = 0x3ffff
                0x000000009fc00000                RDATA_ADDR_BASE = 0x9fc00000
                0x00000000bfc00000                RCODE_ADDR_BASE = 0xbfc00000
                0x0000000000000001                KERNEL_BANK_A = 0x1
                0x0000000000000002                KERNEL_BANK_B = 0x2
                0x0000000000000003                KERNEL_BANK_C = 0x3
                0x0000000000040000                BANK_SPACE = 0x40000
                0x0000000000000000                FRONT_AP = 0x0
                0x0000000000000001                BACK_AP = 0x1
                0x0000000000000002                PROCESS_MANAGER_AP = 0x2
                0x0000000000000000                FRONT_CODEC = 0x0
                0x0000000000000001                BACK_CODEC = 0x1
                0x0000000000000040                AP_BANK_FRONT_CONTROL_1 = 0x40
                0x0000000000000048                AP_BANK_FRONT_UI_1 = 0x48
                0x0000000000000050                AP_BANK_FRONT_BASAL = 0x50
                0x0000000000000058                AP_BANK_FRONT_CODEC = 0x58
                0x0000000000000060                AP_BANK_BACK_CONTROL_1 = 0x60
                0x0000000000000068                AP_BANK_BACK_BASAL = 0x68
                0x0000000000000070                AP_BANK_BACK_CODEC = 0x70
                0x0000000000000078                AP_BANK_FRONT_ENHANCED_1 = 0x78
                0x0000000000000071                AP_BANK_FRONT_ENHANCED_2 = 0x71
                0x000000000000007a                AP_BANK_BACK_ENHANCED_1 = 0x7a
                0x000000000000007b                AP_BANK_BACK_ENHANCED_2 = 0x7b
                0x0000000000000072                AP_BANK_BTENGINE_CONTROL_1 = 0x72
                0x0000000000000073                AP_BANK_BTENGINE_LIB_1 = 0x73
                0x0000000000000074                AP_BANK_BTENGINE_LIB_2 = 0x74
                0x0000000000000075                AP_BANK_BTENGINE_EXTEND_1 = 0x75
                0x0000000000000076                AP_BANK_BTENGINE_EXTEND_2 = 0x76
                0x0000000000000077                AP_BANK_BTENGINE_EXTEND_3 = 0x77
                0x000000000000007c                AP_BANK_BTENGINE_EXTEND_4 = 0x7c
                0x0000000000000079                AP_BANK_BTENGINE_EXTEND_5 = 0x79
                0x000000000000007f                AP_BANK_MANAGER = 0x7f
                0x0000000000000041                AP_BANK_AUTOTEST = 0x41
                0x0000000000000000                SROM_BROM_ADDR = 0x0
                0x0000000000002600                SROM_BROM_SIZE = 0x2600
                0x0000000000002600                SROM_SPINOR_ADDR = (SROM_BROM_ADDR + SROM_BROM_SIZE)
                0x0000000000000c00                SROM_SPINOR_SIZE = 0xc00
                0x0000000000003200                SROM_TWI_ADDR = (SROM_SPINOR_ADDR + SROM_SPINOR_SIZE)
                0x0000000000000700                SROM_TWI_SIZE = 0x700
                0x0000000000003900                SROM_STUB_ADDR = (SROM_TWI_ADDR + SROM_TWI_SIZE)
                0x0000000000000700                SROM_STUB_SIZE = 0x700
                0x0000000000000e00                SROM_SPINOR_SIZE_MDY = 0xe00
                0x0000000000003400                SROM_TWI_ADDR_MDY = (SROM_SPINOR_ADDR + SROM_SPINOR_SIZE_MDY)
                0x0000000000000700                SROM_TWI_SIZE_MDY = 0x700
                0x0000000000003b00                SROM_STUB_ADDR_MDY = (SROM_TWI_ADDR_MDY + SROM_TWI_SIZE_MDY)
                0x0000000000000500                SROM_STUB_SIZE_MDY = 0x500
                0x0000000000004000                SROM_KERNEL_ADDR = (SROM_STUB_ADDR + SROM_STUB_SIZE)
                0x0000000000004000                SROM_KERNEL_SIZE = 0x4000
                0x000000000000c000                SROM_FS_ADDR = 0xc000
                0x0000000000001c00                SROM_FS_SIZE = 0x1c00
                0x000000000000dc00                SROM_SPINOR1_ADDR = (SROM_FS_ADDR + SROM_FS_SIZE)
                0x0000000000000400                SROM_SPINOR1_SIZE = 0x400
                0x0000000000008000                SRAM_OS_RCODE_ADDR = 0x8000
                0x0000000000000c00                SRAM_OS_RCODE_SIZE = 0xc00
                0x0000000000008c00                SRAM_SPINOR_RCODE_ADDR = 0x8c00
                0x0000000000000400                SRAM_SPINOR_RCODE_SIZE = 0x400
                0x0000000000009000                SRAM_BANK_A_ADDR = 0x9000
                0x0000000000000400                SRAM_BANK_A_SIZE = 0x400
                0x0000000000009400                SRAM_BANK_B_ADDR = 0x9400
                0x0000000000000800                SRAM_BANK_B_SIZE = 0x800
                0x0000000000009c00                SRAM_UI_RCODE1_ADDR = 0x9c00
                0x0000000000000300                SRAM_UI_RCODE1_SIZE = 0x300
                0x0000000000009f00                SRAM_AUDIO_GLOBAL_DATA_ADDR = 0x9f00
                0x0000000000000060                SRAM_AUDIO_GLOBAL_DATA_SIZE = 0x60
                0x0000000000009f60                SRAM_UHOST_GLOBAL_DATA_ADDR = 0x9f60
                0x0000000000000010                SRAM_UHOST_GLOBAL_DATA_SIZE = 0x10
                0x0000000000009f70                SRAM_CARD_GLOBAL_DATA_ADDR = 0x9f70
                0x0000000000000010                SRAM_CARD_GLOBAL_DATA_SIZE = 0x10
                0x0000000000009f80                SRAM_SYS_SHARE_DATA_ADDR = 0x9f80
                0x0000000000000040                SRAM_SYS_SHARE_DATA_SIZE = 0x40
                0x0000000000009fc0                SRAM_RAM6_CCD_GLOBAL_DATA_ADDR = 0x9fc0
                0x0000000000000020                SRAM_RAM6_CCD_GLOBAL_DATA_SIZE = 0x20
                0x0000000000009fe0                SRAM_RAM6_RESEVER_ADDR = 0x9fe0
                0x0000000000000020                SRAM_RAM6_RESEVER_SIZE = 0x20
                0x000000000000a000                SRAM_LCD_RCODE_ADDR = 0xa000
                0x0000000000000800                SRAM_LCD_RCODE_SIZE = 0x800
                0x000000000000a800                SRAM_UI_RCODE2_ADDR = 0xa800
                0x0000000000001000                SRAM_UI_RCODE2_SIZE = 0x1000
                0x000000000000b800                SRAM_LCD_BUFFER_ADDR = 0xb800
                0x0000000000000400                SRAM_LCD_BUFFER_SIZE = 0x400
                0x000000000000bc00                SRAM_UI_DATA_ADDR = 0xbc00
                0x0000000000000400                SRAM_UI_DATA_SIZE = 0x400
                0x0000000000010000                SRAM_KEY_MESSAGE_RCODE_ADDR = 0x10000
                0x0000000000000a00                SRAM_KEY_MESSAGE_RCODE_SIZE = 0xa00
                0x0000000000010a00                SRAM_RAM0_RESEVER1_ADDR = 0x10a00
                0x0000000000000200                SRAM_RAM0_RESEVER1_SIZE = 0x200
                0x0000000000010c00                SRAM_AP_FRONT_BASAL_RCODE_ADDR = 0x10c00
                0x0000000000000100                SRAM_AP_FRONT_BASAL_RCODE_SIZE = 0x100
                0x0000000000010d00                SRAM_AP_BANK_BACK_CONTROL_ADDR = 0x10d00
                0x0000000000000800                SRAM_AP_BANK_BACK_CONTROL_SIZE = 0x800
                0x0000000000011500                SRAM_AP_BACK_RCODE_ADDR = 0x11500
                0x0000000000000800                SRAM_AP_BACK_RCODE_SIZE = 0x800
                0x0000000000000000                SRAM_AP_BANK_FRONT_CODEC_ADDR = 0x0
                0x0000000000000000                SRAM_AP_BANK_FRONT_CODEC_SIZE = 0x0
                0x0000000000011d00                SRAM_RAM0_RESEVER2_ADDR = 0x11d00
                0x0000000000000800                SRAM_RAM0_RESEVER2_SIZE = 0x800
                0x0000000000012500                SRAM_AP_BANK_FRONT_BASAL_ADDR = 0x12500
                0x0000000000000800                SRAM_AP_BANK_FRONT_BASAL_SIZE = 0x800
                0x0000000000012500                SRAM_AP_BANK_FRONT_ENHANCED_2_ADDR = SRAM_AP_BANK_FRONT_BASAL_ADDR
                0x0000000000000800                SRAM_AP_BANK_FRONT_ENHANCED_2_SIZE = SRAM_AP_BANK_FRONT_BASAL_SIZE
                0x0000000000012d00                SRAM_AP_BANK_BACK_BASAL_ADDR = 0x12d00
                0x0000000000000800                SRAM_AP_BANK_BACK_BASAL_SIZE = 0x800
                0x0000000000012d00                SRAM_AP_BANK_BACK_ENHANCED_1_ADDR = SRAM_AP_BANK_BACK_BASAL_ADDR
                0x0000000000000800                SRAM_AP_BANK_BACK_ENHANCED_1_SIZE = SRAM_AP_BANK_BACK_BASAL_SIZE
                0x0000000000013500                SRAM_AP_BACK_BASAL_RCODE_ADDR = 0x13500
                0x0000000000000800                SRAM_AP_BACK_BASAL_RCODE_SIZE = 0x800
                0x0000000000013d00                SRAM_KERNEL_BSS_ADDR = 0x13d00
                0x00000000000000e0                SRAM_KERNEL_BSS_SIZE = 0xe0
                0x0000000000013de0                SRAM_AP_MANAGER_ADDR = 0x13de0
                0x0000000000000200                SRAM_AP_MANAGER_SIZE = 0x200
                0x0000000000013fc0                SRAM_IRQ_DSP_PRINT_TEMP_ADDR = 0x13fc0
                0x0000000000000020                SRAM_IRQ_DSP_PRINT_TEMP_SIZE = 0x20
                0x0000000000013fe0                SRAM_IRQ_PRINT_BUFFER_ADDR = 0x13fe0
                0x0000000000000110                SRAM_IRQ_PRINT_BUFFER_SIZE = 0x110
                0x00000000000140f0                SRAM_DSP_PRINT_BUFFER_ADDR = 0x140f0
                0x0000000000000110                SRAM_DSP_PRINT_BUFFER_SIZE = 0x110
                0x0000000000014200                SRAM_LCD_DATA_ADDR = 0x14200
                0x0000000000000100                SRAM_LCD_DATA_SIZE = 0x100
                0x0000000000014300                SRAM_KEY_MESSAGE_DATA_ADDR = 0x14300
                0x0000000000000100                SRAM_KEY_MESSAGE_DATA_SIZE = 0x100
                0x0000000000014400                SRAM_AP_BANK_FRONT_UI_ADDR = 0x14400
                0x0000000000000800                SRAM_AP_BANK_FRONT_UI_SIZE = 0x800
                0x0000000000014c00                SRAM_AP_BANK_FRONT_CONTROL_ADDR = 0x14c00
                0x0000000000000800                SRAM_AP_BANK_FRONT_CONTROL_SIZE = 0x800
                0x0000000000015400                SRAM_AP_FRONT_DATA_ADDR = 0x15400
                0x0000000000000800                SRAM_AP_FRONT_DATA_SIZE = 0x800
                0x0000000000015c00                SRAM_AP_BACK_DATA_ADDR = 0x15c00
                0x0000000000000600                SRAM_AP_BACK_DATA_SIZE = 0x600
                0x0000000000016200                SRAM_AP_BANK_MANAGER_ADDR = 0x16200
                0x0000000000000200                SRAM_AP_BANK_MANAGER_SIZE = 0x200
                0x0000000000016400                SRAM_AP_FRONT_RCODE_ADDR = 0x16400
                0x0000000000000800                SRAM_AP_FRONT_RCODE_SIZE = 0x800
                0x0000000000016c00                SRAM_FS_RCODE_ADDR = 0x16c00
                0x0000000000000800                SRAM_FS_RCODE_SIZE = 0x800
                0x0000000000017400                SRAM_UI_RCODE3_ADDR = 0x17400
                0x0000000000000c00                SRAM_UI_RCODE3_SIZE = 0xc00
                0x0000000000017400                SRAM_CARD_UD_RCODE_ADDR = 0x17400
                0x0000000000000c00                SRAM_CARD_UD_RCODE_SIZE = 0xc00
                0x0000000000017400                SRAM_UHOST_UD_RCODE_ADDR = SRAM_CARD_UD_RCODE_ADDR
                0x0000000000000c00                SRAM_UHOST_UD_RCODE_SIZE = SRAM_CARD_UD_RCODE_SIZE
                0x0000000000018000                SRAM_FS_DATA_ADDR = 0x18000
                0x0000000000000300                SRAM_FS_DATA_SIZE = 0x300
                0x0000000000018300                SRAM_FS_BUF_ADDR = 0x18300
                0x0000000000000a00                SRAM_FS_BUF_SIZE = 0xa00
                0x0000000000018d00                SRAM_CARD_UD_CACHE_ADDR = 0x18d00
                0x0000000000000800                SRAM_CARD_UD_CACHE_SIZE = 0x800
                0x0000000000018d00                SRAM_UHOST_UD_CACHE_ADDR = SRAM_CARD_UD_CACHE_ADDR
                0x0000000000000800                SRAM_UHOST_UD_CACHE_SIZE = SRAM_CARD_UD_CACHE_SIZE
                0x0000000000019500                SRAM_CARD_DATA_ADDR = 0x19500
                0x0000000000000080                SRAM_CARD_DATA_SIZE = 0x80
                0x0000000000019500                SRAM_UHOST_DATA_ADDR = SRAM_CARD_DATA_ADDR
                0x0000000000000080                SRAM_UHOST_DATA_SIZE = SRAM_CARD_DATA_SIZE
                0x0000000000019580                SRAM_KERNEL_XSYS_ADDR = 0x19580
                0x0000000000000800                SRAM_KERNEL_XSYS_SIZE = 0x800
                0x0000000000019d80                SRAM_BANK_C_ADDR = 0x19d80
                0x0000000000000400                SRAM_BANK_C_SIZE = 0x400
                0x000000000001a180                SRAM_APPLIB_GLOBAL_DATA_ADDR = 0x1a180
                0x0000000000000100                SRAM_APPLIB_GLOBAL_DATA_SIZE = 0x100
                0x000000000001a280                SRAM_APPLIB_DATA_ADDR = 0x1a280
                0x0000000000000100                SRAM_APPLIB_DATA_SIZE = 0x100
                0x000000000001a380                SRAM_RAM1_RESEVER1_ADDR = 0x1a380
                0x0000000000000080                SRAM_RAM1_RESEVER1_SIZE = 0x80
                0x000000000001a400                SRAM_OS_DATA_ADDR = 0x1a400
                0x0000000000000880                SRAM_OS_DATA_SIZE = 0x880
                0x000000000001ac80                SRAM_OS_HEAP_ADDR = 0x1ac80
                0x0000000000000580                SRAM_OS_HEAP_SIZE = 0x580
                0x000000000001b200                SRAM_AP_BANK_FRONT_ENHANCED_1_ADDR = 0x1b200
                0x0000000000000800                SRAM_AP_BANK_FRONT_ENHANCED_1_SIZE = 0x800
                0x000000000001b200                SRAM_FM_DRV_RCODE_ADDR = SRAM_AP_BANK_FRONT_ENHANCED_1_ADDR
                0x0000000000000800                SRAM_FM_DRV_RCODE_SIZE = SRAM_AP_BANK_FRONT_ENHANCED_1_SIZE
                0x000000000001ba00                SRAM_OS_SD_SWAP_BUF_ADDR = 0x1ba00
                0x0000000000000200                SRAM_OS_SD_SWAP_BUF_SIZE = 0x200
                0x000000000001bc00                SRAM_OS_TASK_STACK_ADDR = 0x1bc00
                0x0000000000001a00                SRAM_OS_TASK_STACK_SIZE = 0x1a00
                0x000000000001d600                SRAM_OS_SYS_STACK_ADDR = 0x1d600
                0x0000000000000400                SRAM_OS_SYS_STACK_SIZE = 0x400
                0x000000000001da00                SRAM_RAM1_RESEVER2_ADDR = 0x1da00
                0x0000000000000600                SRAM_RAM1_RESEVER1_SIZE = 0x600
                0x0000000000027000                SRAM_AP_BACK_CODEC_RCODE_ADDR = 0x27000
                0x0000000000001000                SRAM_AP_BACK_CODEC_RCODE_SIZE = 0x1000
                0x0000000000028000                SRAM_AP_BANK_BACK_CODEC_ADDR = 0x28000
                0x0000000000001000                SRAM_AP_BANK_BACK_CODEC_SIZE = 0x1000
                0x0000000000028000                SRAM_AP_BANK_BACK_ENHANCED_2_ADDR = 0x28000
                0x0000000000000800                SRAM_AP_BANK_BACK_ENHANCED_2_SIZE = 0x800
                0x0000000000030000                SRAM_AP_USB_DEVICE_RCODE_ADDR = 0x30000
                0x0000000000004000                SRAM_AP_USB_DEVICE_RCODE_SIZE = 0x4000
                0x0000000000038000                SRAM_TWI_ADDR_MDY = 0x38000
                0x0000000000000700                SRAM_TWI_SIZE_MDY = SROM_TWI_SIZE_MDY
                0x0000000000040000                SRAM_INVALID_RCODE_ADDR = 0x40000
                0x0000000000000000                AP_INDEX = FRONT_AP
                0x0000000040014c00                BANK_CONTROL_1_ADDR_BASE = ((AP_BANK_FRONT_CONTROL_1 << 0x18) + SRAM_AP_BANK_FRONT_CONTROL_ADDR)
                0x0000000048014400                BANK_UI_1_ADDR_BASE = ((AP_BANK_FRONT_UI_1 << 0x18) + SRAM_AP_BANK_FRONT_UI_ADDR)
                0x000000007801b200                BANK_FRONT_ENHANCED_1_ADDR_BASE = ((AP_BANK_FRONT_ENHANCED_1 << 0x18) + SRAM_AP_BANK_FRONT_ENHANCED_1_ADDR)
                0x0000000071012500                BANK_FRONT_ENHANCED_2_ADDR_BASE = ((AP_BANK_FRONT_ENHANCED_2 << 0x18) + SRAM_AP_BANK_FRONT_ENHANCED_2_ADDR)
                0x000000007a012d00                BANK_BACK_ENHANCED_1_ADDR_BASE = ((AP_BANK_BACK_ENHANCED_1 << 0x18) + SRAM_AP_BANK_BACK_ENHANCED_1_ADDR)
                0x000000007b028000                BANK_BACK_ENHANCED_2_ADDR_BASE = ((AP_BANK_BACK_ENHANCED_2 << 0x18) + SRAM_AP_BANK_BACK_ENHANCED_2_ADDR)
                0x0000000000000800                BANK_CONTROL_SIZE = SRAM_AP_BANK_FRONT_CONTROL_SIZE
                0x0000000000000800                BANK_UI_SIZE = SRAM_AP_BANK_FRONT_UI_SIZE
                0x0000000000000800                BANK_FRONT_ENHANCED1_SIZE = SRAM_AP_BANK_FRONT_ENHANCED_1_SIZE
                0x0000000000000800                BANK_FRONT_ENHANCED2_SIZE = SRAM_AP_BANK_FRONT_ENHANCED_2_SIZE
                0x0000000000000800                BANK_BACK_ENHANCED1_SIZE = SRAM_AP_BANK_BACK_ENHANCED_1_SIZE
                0x0000000000000800                BANK_BACK_ENHANCED2_SIZE = SRAM_AP_BANK_BACK_ENHANCED_2_SIZE
                0x0000000000040000                AP_BANK_SPACE = BANK_SPACE
                0x000000007801b200                . = BANK_FRONT_ENHANCED_1_ADDR_BASE
                0x000000000001b200                OFFSET = (. & 0x3ffff)

BANK_FRONT_ENHANCED_COMM_1_0
                0x000000007801b200      0x800
 eh_module.o(.text .rodata .xdata)
 .text          0x000000007801b200      0x4f8 ./../../../psp_rel/lib/lib_enhanced/eh_module.o
                0x000000007801b299                set_fileindex
                0x000000007801b219                select_dir_or_dirlist
                0x000000007801b5d1                fsel_exit
                0x000000007801b281                get_fileindex
                0x000000007801b6e1                fsel_get_error
                0x000000007801b2f5                fsel_init
                0x000000007801b2b1                set_dirlist_file_index_tbl
                0x000000007801b2d5                get_dirlist_file_index_tbl
                0x000000007801b201                get_current_disk
 .rodata        0x000000007801b6f8       0x30 ./../../../psp_rel/lib/lib_enhanced/eh_module.o
 .xdata         0x000000007801b728      0x204 ./../../../psp_rel/lib/lib_enhanced/eh_module.o
                0x000000007801b72c                temp_module_buf
                0x0000000000000800                . = BANK_FRONT_ENHANCED1_SIZE
 *fill*         0x000000007801b92c       0xd4 00
LOAD ./../common/common_front_no_selector.xn
LOAD ./../../../psp_rel/include/link_base.xn
                0x0000000000000000                DRV_GROUP_STG_BASE = 0x0
                0x0000000000000001                DRV_GROUP_STG_CARD = 0x1
                0x0000000000000002                DRV_GROUP_STG_UHOST = 0x2
                0x0000000000000003                DRV_GROUP_FAT32 = 0x3
                0x0000000000000004                DRV_GROUP_EXFAT = 0x4
                0x0000000000000005                DRV_GROUP_UD = 0x5
                0x0000000000000006                DRV_GROUP_UI = 0x6
                0x0000000000000007                DRV_GROUP_LCD = 0x7
                0x0000000000000008                DRV_GROUP_FM = 0x8
                0x0000000000000009                DRV_GROUP_KEY = 0x9
                0x000000000000000a                DRV_GROUP_CCD = 0xa
                0x000000000000000b                DRV_GROUP_I2C = 0xb
                0x000000000000000c                DRV_GROUP_AUDIO_DEVICE = 0xc
                0x000000000000000d                DRV_GROUP_TTS = 0xd
                0x000000000000000e                DRV_GROUP_BT = 0xe
                0x000000000000000f                DRV_GROUP_SYS = 0xf
                0x000000000003ffff                SRAM_SIZE_MASK = 0x3ffff
                0x000000009fc00000                RDATA_ADDR_BASE = 0x9fc00000
                0x00000000bfc00000                RCODE_ADDR_BASE = 0xbfc00000
                0x0000000000000001                KERNEL_BANK_A = 0x1
                0x0000000000000002                KERNEL_BANK_B = 0x2
                0x0000000000000003                KERNEL_BANK_C = 0x3
                0x0000000000040000                BANK_SPACE = 0x40000
                0x0000000000000000                FRONT_AP = 0x0
                0x0000000000000001                BACK_AP = 0x1
                0x0000000000000002                PROCESS_MANAGER_AP = 0x2
                0x0000000000000000                FRONT_CODEC = 0x0
                0x0000000000000001                BACK_CODEC = 0x1
                0x0000000000000040                AP_BANK_FRONT_CONTROL_1 = 0x40
                0x0000000000000048                AP_BANK_FRONT_UI_1 = 0x48
                0x0000000000000050                AP_BANK_FRONT_BASAL = 0x50
                0x0000000000000058                AP_BANK_FRONT_CODEC = 0x58
                0x0000000000000060                AP_BANK_BACK_CONTROL_1 = 0x60
                0x0000000000000068                AP_BANK_BACK_BASAL = 0x68
                0x0000000000000070                AP_BANK_BACK_CODEC = 0x70
                0x0000000000000078                AP_BANK_FRONT_ENHANCED_1 = 0x78
                0x0000000000000071                AP_BANK_FRONT_ENHANCED_2 = 0x71
                0x000000000000007a                AP_BANK_BACK_ENHANCED_1 = 0x7a
                0x000000000000007b                AP_BANK_BACK_ENHANCED_2 = 0x7b
                0x0000000000000072                AP_BANK_BTENGINE_CONTROL_1 = 0x72
                0x0000000000000073                AP_BANK_BTENGINE_LIB_1 = 0x73
                0x0000000000000074                AP_BANK_BTENGINE_LIB_2 = 0x74
                0x0000000000000075                AP_BANK_BTENGINE_EXTEND_1 = 0x75
                0x0000000000000076                AP_BANK_BTENGINE_EXTEND_2 = 0x76
                0x0000000000000077                AP_BANK_BTENGINE_EXTEND_3 = 0x77
                0x000000000000007c                AP_BANK_BTENGINE_EXTEND_4 = 0x7c
                0x0000000000000079                AP_BANK_BTENGINE_EXTEND_5 = 0x79
                0x000000000000007f                AP_BANK_MANAGER = 0x7f
                0x0000000000000041                AP_BANK_AUTOTEST = 0x41
                0x0000000000000000                SROM_BROM_ADDR = 0x0
                0x0000000000002600                SROM_BROM_SIZE = 0x2600
                0x0000000000002600                SROM_SPINOR_ADDR = (SROM_BROM_ADDR + SROM_BROM_SIZE)
                0x0000000000000c00                SROM_SPINOR_SIZE = 0xc00
                0x0000000000003200                SROM_TWI_ADDR = (SROM_SPINOR_ADDR + SROM_SPINOR_SIZE)
                0x0000000000000700                SROM_TWI_SIZE = 0x700
                0x0000000000003900                SROM_STUB_ADDR = (SROM_TWI_ADDR + SROM_TWI_SIZE)
                0x0000000000000700                SROM_STUB_SIZE = 0x700
                0x0000000000000e00                SROM_SPINOR_SIZE_MDY = 0xe00
                0x0000000000003400                SROM_TWI_ADDR_MDY = (SROM_SPINOR_ADDR + SROM_SPINOR_SIZE_MDY)
                0x0000000000000700                SROM_TWI_SIZE_MDY = 0x700
                0x0000000000003b00                SROM_STUB_ADDR_MDY = (SROM_TWI_ADDR_MDY + SROM_TWI_SIZE_MDY)
                0x0000000000000500                SROM_STUB_SIZE_MDY = 0x500
                0x0000000000004000                SROM_KERNEL_ADDR = (SROM_STUB_ADDR + SROM_STUB_SIZE)
                0x0000000000004000                SROM_KERNEL_SIZE = 0x4000
                0x000000000000c000                SROM_FS_ADDR = 0xc000
                0x0000000000001c00                SROM_FS_SIZE = 0x1c00
                0x000000000000dc00                SROM_SPINOR1_ADDR = (SROM_FS_ADDR + SROM_FS_SIZE)
                0x0000000000000400                SROM_SPINOR1_SIZE = 0x400
                0x0000000000008000                SRAM_OS_RCODE_ADDR = 0x8000
                0x0000000000000c00                SRAM_OS_RCODE_SIZE = 0xc00
                0x0000000000008c00                SRAM_SPINOR_RCODE_ADDR = 0x8c00
                0x0000000000000400                SRAM_SPINOR_RCODE_SIZE = 0x400
                0x0000000000009000                SRAM_BANK_A_ADDR = 0x9000
                0x0000000000000400                SRAM_BANK_A_SIZE = 0x400
                0x0000000000009400                SRAM_BANK_B_ADDR = 0x9400
                0x0000000000000800                SRAM_BANK_B_SIZE = 0x800
                0x0000000000009c00                SRAM_UI_RCODE1_ADDR = 0x9c00
                0x0000000000000300                SRAM_UI_RCODE1_SIZE = 0x300
                0x0000000000009f00                SRAM_AUDIO_GLOBAL_DATA_ADDR = 0x9f00
                0x0000000000000060                SRAM_AUDIO_GLOBAL_DATA_SIZE = 0x60
                0x0000000000009f60                SRAM_UHOST_GLOBAL_DATA_ADDR = 0x9f60
                0x0000000000000010                SRAM_UHOST_GLOBAL_DATA_SIZE = 0x10
                0x0000000000009f70                SRAM_CARD_GLOBAL_DATA_ADDR = 0x9f70
                0x0000000000000010                SRAM_CARD_GLOBAL_DATA_SIZE = 0x10
                0x0000000000009f80                SRAM_SYS_SHARE_DATA_ADDR = 0x9f80
                0x0000000000000040                SRAM_SYS_SHARE_DATA_SIZE = 0x40
                0x0000000000009fc0                SRAM_RAM6_CCD_GLOBAL_DATA_ADDR = 0x9fc0
                0x0000000000000020                SRAM_RAM6_CCD_GLOBAL_DATA_SIZE = 0x20
                0x0000000000009fe0                SRAM_RAM6_RESEVER_ADDR = 0x9fe0
                0x0000000000000020                SRAM_RAM6_RESEVER_SIZE = 0x20
                0x000000000000a000                SRAM_LCD_RCODE_ADDR = 0xa000
                0x0000000000000800                SRAM_LCD_RCODE_SIZE = 0x800
                0x000000000000a800                SRAM_UI_RCODE2_ADDR = 0xa800
                0x0000000000001000                SRAM_UI_RCODE2_SIZE = 0x1000
                0x000000000000b800                SRAM_LCD_BUFFER_ADDR = 0xb800
                0x0000000000000400                SRAM_LCD_BUFFER_SIZE = 0x400
                0x000000000000bc00                SRAM_UI_DATA_ADDR = 0xbc00
                0x0000000000000400                SRAM_UI_DATA_SIZE = 0x400
                0x0000000000010000                SRAM_KEY_MESSAGE_RCODE_ADDR = 0x10000
                0x0000000000000a00                SRAM_KEY_MESSAGE_RCODE_SIZE = 0xa00
                0x0000000000010a00                SRAM_RAM0_RESEVER1_ADDR = 0x10a00
                0x0000000000000200                SRAM_RAM0_RESEVER1_SIZE = 0x200
                0x0000000000010c00                SRAM_AP_FRONT_BASAL_RCODE_ADDR = 0x10c00
                0x0000000000000100                SRAM_AP_FRONT_BASAL_RCODE_SIZE = 0x100
                0x0000000000010d00                SRAM_AP_BANK_BACK_CONTROL_ADDR = 0x10d00
                0x0000000000000800                SRAM_AP_BANK_BACK_CONTROL_SIZE = 0x800
                0x0000000000011500                SRAM_AP_BACK_RCODE_ADDR = 0x11500
                0x0000000000000800                SRAM_AP_BACK_RCODE_SIZE = 0x800
                0x0000000000000000                SRAM_AP_BANK_FRONT_CODEC_ADDR = 0x0
                0x0000000000000000                SRAM_AP_BANK_FRONT_CODEC_SIZE = 0x0
                0x0000000000011d00                SRAM_RAM0_RESEVER2_ADDR = 0x11d00
                0x0000000000000800                SRAM_RAM0_RESEVER2_SIZE = 0x800
                0x0000000000012500                SRAM_AP_BANK_FRONT_BASAL_ADDR = 0x12500
                0x0000000000000800                SRAM_AP_BANK_FRONT_BASAL_SIZE = 0x800
                0x0000000000012500                SRAM_AP_BANK_FRONT_ENHANCED_2_ADDR = SRAM_AP_BANK_FRONT_BASAL_ADDR
                0x0000000000000800                SRAM_AP_BANK_FRONT_ENHANCED_2_SIZE = SRAM_AP_BANK_FRONT_BASAL_SIZE
                0x0000000000012d00                SRAM_AP_BANK_BACK_BASAL_ADDR = 0x12d00
                0x0000000000000800                SRAM_AP_BANK_BACK_BASAL_SIZE = 0x800
                0x0000000000012d00                SRAM_AP_BANK_BACK_ENHANCED_1_ADDR = SRAM_AP_BANK_BACK_BASAL_ADDR
                0x0000000000000800                SRAM_AP_BANK_BACK_ENHANCED_1_SIZE = SRAM_AP_BANK_BACK_BASAL_SIZE
                0x0000000000013500                SRAM_AP_BACK_BASAL_RCODE_ADDR = 0x13500
                0x0000000000000800                SRAM_AP_BACK_BASAL_RCODE_SIZE = 0x800
                0x0000000000013d00                SRAM_KERNEL_BSS_ADDR = 0x13d00
                0x00000000000000e0                SRAM_KERNEL_BSS_SIZE = 0xe0
                0x0000000000013de0                SRAM_AP_MANAGER_ADDR = 0x13de0
                0x0000000000000200                SRAM_AP_MANAGER_SIZE = 0x200
                0x0000000000013fc0                SRAM_IRQ_DSP_PRINT_TEMP_ADDR = 0x13fc0
                0x0000000000000020                SRAM_IRQ_DSP_PRINT_TEMP_SIZE = 0x20
                0x0000000000013fe0                SRAM_IRQ_PRINT_BUFFER_ADDR = 0x13fe0
                0x0000000000000110                SRAM_IRQ_PRINT_BUFFER_SIZE = 0x110
                0x00000000000140f0                SRAM_DSP_PRINT_BUFFER_ADDR = 0x140f0
                0x0000000000000110                SRAM_DSP_PRINT_BUFFER_SIZE = 0x110
                0x0000000000014200                SRAM_LCD_DATA_ADDR = 0x14200
                0x0000000000000100                SRAM_LCD_DATA_SIZE = 0x100
                0x0000000000014300                SRAM_KEY_MESSAGE_DATA_ADDR = 0x14300
                0x0000000000000100                SRAM_KEY_MESSAGE_DATA_SIZE = 0x100
                0x0000000000014400                SRAM_AP_BANK_FRONT_UI_ADDR = 0x14400
                0x0000000000000800                SRAM_AP_BANK_FRONT_UI_SIZE = 0x800
                0x0000000000014c00                SRAM_AP_BANK_FRONT_CONTROL_ADDR = 0x14c00
                0x0000000000000800                SRAM_AP_BANK_FRONT_CONTROL_SIZE = 0x800
                0x0000000000015400                SRAM_AP_FRONT_DATA_ADDR = 0x15400
                0x0000000000000800                SRAM_AP_FRONT_DATA_SIZE = 0x800
                0x0000000000015c00                SRAM_AP_BACK_DATA_ADDR = 0x15c00
                0x0000000000000600                SRAM_AP_BACK_DATA_SIZE = 0x600
                0x0000000000016200                SRAM_AP_BANK_MANAGER_ADDR = 0x16200
                0x0000000000000200                SRAM_AP_BANK_MANAGER_SIZE = 0x200
                0x0000000000016400                SRAM_AP_FRONT_RCODE_ADDR = 0x16400
                0x0000000000000800                SRAM_AP_FRONT_RCODE_SIZE = 0x800
                0x0000000000016c00                SRAM_FS_RCODE_ADDR = 0x16c00
                0x0000000000000800                SRAM_FS_RCODE_SIZE = 0x800
                0x0000000000017400                SRAM_UI_RCODE3_ADDR = 0x17400
                0x0000000000000c00                SRAM_UI_RCODE3_SIZE = 0xc00
                0x0000000000017400                SRAM_CARD_UD_RCODE_ADDR = 0x17400
                0x0000000000000c00                SRAM_CARD_UD_RCODE_SIZE = 0xc00
                0x0000000000017400                SRAM_UHOST_UD_RCODE_ADDR = SRAM_CARD_UD_RCODE_ADDR
                0x0000000000000c00                SRAM_UHOST_UD_RCODE_SIZE = SRAM_CARD_UD_RCODE_SIZE
                0x0000000000018000                SRAM_FS_DATA_ADDR = 0x18000
                0x0000000000000300                SRAM_FS_DATA_SIZE = 0x300
                0x0000000000018300                SRAM_FS_BUF_ADDR = 0x18300
                0x0000000000000a00                SRAM_FS_BUF_SIZE = 0xa00
                0x0000000000018d00                SRAM_CARD_UD_CACHE_ADDR = 0x18d00
                0x0000000000000800                SRAM_CARD_UD_CACHE_SIZE = 0x800
                0x0000000000018d00                SRAM_UHOST_UD_CACHE_ADDR = SRAM_CARD_UD_CACHE_ADDR
                0x0000000000000800                SRAM_UHOST_UD_CACHE_SIZE = SRAM_CARD_UD_CACHE_SIZE
                0x0000000000019500                SRAM_CARD_DATA_ADDR = 0x19500
                0x0000000000000080                SRAM_CARD_DATA_SIZE = 0x80
                0x0000000000019500                SRAM_UHOST_DATA_ADDR = SRAM_CARD_DATA_ADDR
                0x0000000000000080                SRAM_UHOST_DATA_SIZE = SRAM_CARD_DATA_SIZE
                0x0000000000019580                SRAM_KERNEL_XSYS_ADDR = 0x19580
                0x0000000000000800                SRAM_KERNEL_XSYS_SIZE = 0x800
                0x0000000000019d80                SRAM_BANK_C_ADDR = 0x19d80
                0x0000000000000400                SRAM_BANK_C_SIZE = 0x400
                0x000000000001a180                SRAM_APPLIB_GLOBAL_DATA_ADDR = 0x1a180
                0x0000000000000100                SRAM_APPLIB_GLOBAL_DATA_SIZE = 0x100
                0x000000000001a280                SRAM_APPLIB_DATA_ADDR = 0x1a280
                0x0000000000000100                SRAM_APPLIB_DATA_SIZE = 0x100
                0x000000000001a380                SRAM_RAM1_RESEVER1_ADDR = 0x1a380
                0x0000000000000080                SRAM_RAM1_RESEVER1_SIZE = 0x80
                0x000000000001a400                SRAM_OS_DATA_ADDR = 0x1a400
                0x0000000000000880                SRAM_OS_DATA_SIZE = 0x880
                0x000000000001ac80                SRAM_OS_HEAP_ADDR = 0x1ac80
                0x0000000000000580                SRAM_OS_HEAP_SIZE = 0x580
                0x000000000001b200                SRAM_AP_BANK_FRONT_ENHANCED_1_ADDR = 0x1b200
                0x0000000000000800                SRAM_AP_BANK_FRONT_ENHANCED_1_SIZE = 0x800
                0x000000000001b200                SRAM_FM_DRV_RCODE_ADDR = SRAM_AP_BANK_FRONT_ENHANCED_1_ADDR
                0x0000000000000800                SRAM_FM_DRV_RCODE_SIZE = SRAM_AP_BANK_FRONT_ENHANCED_1_SIZE
                0x000000000001ba00                SRAM_OS_SD_SWAP_BUF_ADDR = 0x1ba00
                0x0000000000000200                SRAM_OS_SD_SWAP_BUF_SIZE = 0x200
                0x000000000001bc00                SRAM_OS_TASK_STACK_ADDR = 0x1bc00
                0x0000000000001a00                SRAM_OS_TASK_STACK_SIZE = 0x1a00
                0x000000000001d600                SRAM_OS_SYS_STACK_ADDR = 0x1d600
                0x0000000000000400                SRAM_OS_SYS_STACK_SIZE = 0x400
                0x000000000001da00                SRAM_RAM1_RESEVER2_ADDR = 0x1da00
                0x0000000000000600                SRAM_RAM1_RESEVER1_SIZE = 0x600
                0x0000000000027000                SRAM_AP_BACK_CODEC_RCODE_ADDR = 0x27000
                0x0000000000001000                SRAM_AP_BACK_CODEC_RCODE_SIZE = 0x1000
                0x0000000000028000                SRAM_AP_BANK_BACK_CODEC_ADDR = 0x28000
                0x0000000000001000                SRAM_AP_BANK_BACK_CODEC_SIZE = 0x1000
                0x0000000000028000                SRAM_AP_BANK_BACK_ENHANCED_2_ADDR = 0x28000
                0x0000000000000800                SRAM_AP_BANK_BACK_ENHANCED_2_SIZE = 0x800
                0x0000000000030000                SRAM_AP_USB_DEVICE_RCODE_ADDR = 0x30000
                0x0000000000004000                SRAM_AP_USB_DEVICE_RCODE_SIZE = 0x4000
                0x0000000000038000                SRAM_TWI_ADDR_MDY = 0x38000
                0x0000000000000700                SRAM_TWI_SIZE_MDY = SROM_TWI_SIZE_MDY
                0x0000000000040000                SRAM_INVALID_RCODE_ADDR = 0x40000
                0x0000000000016400                SRAM_TEXT_ADDR = SRAM_AP_FRONT_RCODE_ADDR
                0x0000000000015400                SRAM_DATA_ADDR = SRAM_AP_FRONT_DATA_ADDR
                0x00000000bfc16400                RCODE_TEXT_ADDR = (RCODE_ADDR_BASE + SRAM_TEXT_ADDR)
                0x000000009fc15400                RDATA_DATA_ADDR = (RDATA_ADDR_BASE + SRAM_DATA_ADDR)
                0x0000000040014c00                BANK_CONTROL_1_ADDR_BASE = ((AP_BANK_FRONT_CONTROL_1 << 0x18) + SRAM_AP_BANK_FRONT_CONTROL_ADDR)
                0x0000000048014400                BANK_UI_1_ADDR_BASE = ((AP_BANK_FRONT_UI_1 << 0x18) + SRAM_AP_BANK_FRONT_UI_ADDR)
                0x0000000000000800                BANK_CONTROL_SIZE = SRAM_AP_BANK_FRONT_CONTROL_SIZE
                0x0000000000000800                BANK_UI_SIZE = SRAM_AP_BANK_FRONT_UI_SIZE
                0x0000000000000600                BANK_UI_RESERVE_SIZE = (SRAM_AP_BANK_FRONT_UI_SIZE - 0x200)
                0x0000000000040000                AP_BANK_SPACE = BANK_SPACE
LOAD ./../../../psp_rel/lib/api.a
OUTPUT(playlist.exe elf32-tradlittlemips)
                0x0000000078054400                . = (((. + AP_BANK_SPACE) & ~ ((AP_BANK_SPACE - 0x1))) + OFFSET)

BANK_FRONT_ENHANCED_ID3_1_0
                0x000000007805b200      0x800
 eh_id3_entry.o(.text .rodata .xdata)
 .text          0x000000007805b200      0x474 ./../../../psp_rel/lib/lib_enhanced/eh_id3_entry.o
                0x000000007805b379                get_init
                0x000000007805b631                get_id3_mp3
                0x000000007805b201                get_id3_info
                0x000000007805b5b9                str_to_capital
                0x000000007805b50d                reset_file_pos
                0x000000007805b3c1                read_buf_data
 .rodata        0x000000007805b674       0x20 ./../../../psp_rel/lib/lib_enhanced/eh_id3_entry.o
 .xdata         0x000000007805b694      0x2a8 ./../../../psp_rel/lib/lib_enhanced/eh_id3_entry.o
                0x000000007805b934                id3_info_p
                0x000000007805b939                mp3_v1_forbidden
                0x000000007805b89c                key_buf
                0x000000007805b69c                id3_temp_buf
                0x000000007805b930                id3_save_p
                0x000000007805b928                id3_pos_buffer
                0x000000007805b920                check_flag
                0x000000007805b92c                id3_pos_file
                0x000000007805b694                id3_save_buf
                0x000000007805b938                m4a_rkn_flg
                0x000000007805b91c                check_count
 eh_id3_aac.o(.text .rodata .xdata)
 .text          0x000000007805b93c       0x74 ./../../../psp_rel/lib/lib_enhanced/eh_id3_aac.o
                0x000000007805b93d                get_id3_aac
                0x0000000000000800                . = BANK_FRONT_ENHANCED1_SIZE
 *fill*         0x000000007805b9b0       0x50 00
                0x0000000078094400                . = (((. + AP_BANK_SPACE) & ~ ((AP_BANK_SPACE - 0x1))) + OFFSET)
                0x0000000071012500                . = BANK_FRONT_ENHANCED_2_ADDR_BASE
                0x0000000000012500                OFFSET = (. & 0x3ffff)

BANK_FRONT_ENHANCED_COMM_2_0
                0x0000000071012500      0x800
 eh_module_sub.o(.text .rodata .xdata)
 .text          0x0000000071012500      0x620 ./../../../psp_rel/lib/lib_enhanced/eh_module_sub.o
                0x0000000071012951                mod_open_playlist
                0x00000000710125f9                mod_open_userpl
 .rodata        0x0000000071012b20       0xa8 ./../../../psp_rel/lib/lib_enhanced/eh_module_sub.o
                0x0000000000000800                . = BANK_FRONT_ENHANCED2_SIZE
 *fill*         0x0000000071012bc8      0x138 00
                0x0000000071054400                . = (((. + AP_BANK_SPACE) & ~ ((AP_BANK_SPACE - 0x1))) + OFFSET)

BANK_FRONT_ENHANCED_ID3_2_0
                0x0000000071052500      0x800
 eh_id3_mp3_v1.o(.text .rodata .xdata)
 .text          0x0000000071052500      0x23c ./../../../psp_rel/lib/lib_enhanced/eh_id3_mp3_v1.o
                0x00000000710525b1                mp3_v1_parse
                0x0000000071052501                mp3_select_genre
 .rodata        0x000000007105273c      0x59c ./../../../psp_rel/lib/lib_enhanced/eh_id3_mp3_v1.o
                0x0000000000000800                . = BANK_FRONT_ENHANCED2_SIZE
 *fill*         0x0000000071052cd8       0x28 00
                0x0000000071094400                . = (((. + AP_BANK_SPACE) & ~ ((AP_BANK_SPACE - 0x1))) + OFFSET)

BANK_FRONT_ENHANCED_ID3_2_1
                0x0000000071092500      0x800
 eh_id3_mp3_v2.o(.text .rodata .xdata)
 .text          0x0000000071092500      0x730 ./../../../psp_rel/lib/lib_enhanced/eh_id3_mp3_v2.o
                0x0000000071092a9d                mp3_v2_parse
                0x00000000710925ad                mp3_v2_2_parse
                0x00000000710927dd                mp3_v2_x_parse
                0x0000000071092b65                check_genre_string
 .rodata        0x0000000071092c30       0x38 ./../../../psp_rel/lib/lib_enhanced/eh_id3_mp3_v2.o
                0x0000000000000800                . = BANK_FRONT_ENHANCED2_SIZE
 *fill*         0x0000000071092c68       0x98 00
                0x00000000710d4400                . = (((. + AP_BANK_SPACE) & ~ ((AP_BANK_SPACE - 0x1))) + OFFSET)

BANK_FRONT_ENHANCED_ID3_2_2
                0x00000000710d2500      0x800
 eh_id3_wma.o(.text .rodata .xdata)
 .text          0x00000000710d2500      0x718 ./../../../psp_rel/lib/lib_enhanced/eh_id3_wma.o
                0x00000000710d2501                get_id3_wma
 .rodata        0x00000000710d2c18       0xd4 ./../../../psp_rel/lib/lib_enhanced/eh_id3_wma.o
 .xdata         0x00000000710d2cec        0xc ./../../../psp_rel/lib/lib_enhanced/eh_id3_wma.o
                0x0000000000000800                . = BANK_FRONT_ENHANCED2_SIZE
 *fill*         0x00000000710d2cf8        0x8 00
                0x0000000071114400                . = (((. + AP_BANK_SPACE) & ~ ((AP_BANK_SPACE - 0x1))) + OFFSET)

BANK_FRONT_ENHANCED_ID3_2_3
                0x0000000071112500      0x800
 eh_id3_ape.o(.text .rodata .xdata)
 .text          0x0000000071112500      0x61c ./../../../psp_rel/lib/lib_enhanced/eh_id3_ape.o
                0x00000000711126fd                ape_check_tag
                0x0000000071112a8d                get_id3_ape
                0x00000000711127b1                ape_v2_parse
 .rodata        0x0000000071112b1c       0x40 ./../../../psp_rel/lib/lib_enhanced/eh_id3_ape.o
 .xdata         0x0000000071112b5c        0xc ./../../../psp_rel/lib/lib_enhanced/eh_id3_ape.o
                0x0000000000000800                . = BANK_FRONT_ENHANCED2_SIZE
 *fill*         0x0000000071112b68      0x198 00
                0x0000000071154400                . = (((. + AP_BANK_SPACE) & ~ ((AP_BANK_SPACE - 0x1))) + OFFSET)

BANK_FRONT_ENHANCED_ID3_2_4
                0x0000000071152500      0x800
 eh_id3_flac.o(.text .rodata .xdata)
 .text          0x0000000071152500      0x3e8 ./../../../psp_rel/lib/lib_enhanced/eh_id3_flac.o
                0x00000000711525b9                get_id3_flac
 .rodata        0x00000000711528e8       0x6c ./../../../psp_rel/lib/lib_enhanced/eh_id3_flac.o
                0x0000000000000800                . = BANK_FRONT_ENHANCED2_SIZE
 *fill*         0x0000000071152954      0x3ac 00
                0x0000000071194400                . = (((. + AP_BANK_SPACE) & ~ ((AP_BANK_SPACE - 0x1))) + OFFSET)

BANK_FRONT_ENHANCED_ID3_2_5
                0x0000000071192500      0x800
 eh_id3_ogg.o(.text .rodata .xdata)
 .text          0x0000000071192500      0x3e8 ./../../../psp_rel/lib/lib_enhanced/eh_id3_ogg.o
                0x0000000071192841                get_id3_ogg
                0x00000000711926b5                ogg_search_key
                0x0000000071192501                IsTextUTF8
                0x00000000711925c5                ogg_get_items
 .rodata        0x00000000711928e8       0x34 ./../../../psp_rel/lib/lib_enhanced/eh_id3_ogg.o
                0x0000000000000800                . = BANK_FRONT_ENHANCED2_SIZE
 *fill*         0x000000007119291c      0x3e4 00
                0x00000000711d4400                . = (((. + AP_BANK_SPACE) & ~ ((AP_BANK_SPACE - 0x1))) + OFFSET)

BANK_FRONT_ENHANCED_ID3_2_6
                0x00000000711d2500      0x800
 eh_id3_aa.o(.text .rodata .xdata)
 .text          0x00000000711d2500      0x48c ./../../../psp_rel/lib/lib_enhanced/eh_id3_aa.o
                0x00000000711d25e5                aa_check_tag
                0x00000000711d2799                get_id3_aa
                0x00000000711d2501                aa_find_tag
 .rodata        0x00000000711d298c       0x20 ./../../../psp_rel/lib/lib_enhanced/eh_id3_aa.o
                0x0000000000000800                . = BANK_FRONT_ENHANCED2_SIZE
 *fill*         0x00000000711d29ac      0x354 00
                0x0000000071214400                . = (((. + AP_BANK_SPACE) & ~ ((AP_BANK_SPACE - 0x1))) + OFFSET)

BANK_FRONT_ENHANCED_ID3_2_7
                0x0000000071212500      0x800
 eh_id3_aax.o(.text .rodata .xdata)
 .text          0x0000000071212500      0x66c ./../../../psp_rel/lib/lib_enhanced/eh_id3_aax.o
                0x0000000071212955                get_id3_aax
                0x000000007121265d                get_id3_aax_sub
 .rodata        0x0000000071212b6c       0x64 ./../../../psp_rel/lib/lib_enhanced/eh_id3_aax.o
                0x0000000000000800                . = BANK_FRONT_ENHANCED2_SIZE
 *fill*         0x0000000071212bd0      0x130 00
                0x0000000071254400                . = (((. + AP_BANK_SPACE) & ~ ((AP_BANK_SPACE - 0x1))) + OFFSET)

BANK_FRONT_ENHANCED_ID3_2_8
                0x0000000071252500      0x800
 eh_id3_function_sub.o(.text .rodata .xdata)
 .text          0x0000000071252500        0xc ./../../../psp_rel/lib/lib_enhanced/eh_id3_function_sub.o
                0x0000000000000800                . = BANK_FRONT_ENHANCED2_SIZE
 *fill*         0x000000007125250c      0x7f4 00
                0x0000000071294400                . = (((. + AP_BANK_SPACE) & ~ ((AP_BANK_SPACE - 0x1))) + OFFSET)

BANK_FRONT_ENHANCED_ID3_2_9
                0x0000000071292500      0x800
 eh_id3_utf8_deal.o(.text .rodata .xdata)
 .text          0x0000000071292500      0x22c ./../../../psp_rel/lib/lib_enhanced/eh_id3_utf8_deal.o
                0x0000000071292645                id3_read_utf8_deal
 .xdata         0x000000007129272c      0x100 ./../../../psp_rel/lib/lib_enhanced/eh_id3_utf8_deal.o
                0x0000000000000800                . = BANK_FRONT_ENHANCED2_SIZE
 *fill*         0x000000007129282c      0x4d4 00
                0x00000000712d4400                . = (((. + AP_BANK_SPACE) & ~ ((AP_BANK_SPACE - 0x1))) + OFFSET)
                0x0000000048414400                XDATA_BASE = (BANK_UI_1_ADDR_BASE + (AP_BANK_SPACE * 0x10))

.XDATA_BANK_UI_STR_BUFFER
                0x0000000048414400      0x200
 common_ui_data.o(.xdata)
 .xdata         0x0000000048414400      0x1c8 ./../../lib/common_ui_data.o
                0x00000000484144c0                com_name_buffer
                0x00000000484145b0                g_aufm_temp
                0x00000000484144f4                g_alarm_temp
                0x0000000048414400                com_str_buffer
                0x0000000048414600                . = 0x200
 *fill*         0x00000000484145c8       0x38 00
                0x0000000040c14c00                . = (BANK_CONTROL_1_ADDR_BASE + (AP_BANK_SPACE * 0x30))
                0x0000000000014c00                OFFSET = (. & 0x3ffff)

BANK_CONTROL_1_48
                0x0000000040c14c00      0x800
 ui_menulist.o(.text .rodata .xdata)
 .text          0x0000000040c14c00      0x4a8 ./../../lib/ui_menulist.o
                0x0000000040c14f31                menulist_msg_deal
                0x0000000040c14c01                gui_menulist
                0x0000000040c15045                load_confmenu_item_data
 .xdata         0x0000000040c150a8       0x70 ./../../lib/ui_menulist.o
                0x0000000000000800                . = BANK_CONTROL_SIZE
 *fill*         0x0000000040c15118      0x2e8 00
                0x0000000040c54400                . = (((. + AP_BANK_SPACE) & ~ ((AP_BANK_SPACE - 0x1))) + OFFSET)

BANK_CONTROL_1_49
                0x0000000040c54c00      0x800
 ui_menulist2.o(.text .rodata .xdata)
 .text          0x0000000040c54c00      0x780 ./../../lib/ui_menulist2.o
                0x0000000040c55069                re_redraw_currentdir
                0x0000000040c54ecd                re_enter_currentdir
                0x0000000040c54d89                load_confmenu_title_data
                0x0000000040c54c8d                init_menulist_param
                0x0000000040c55171                read_history_item_menu
                0x0000000040c54db9                enter_newest_menulist
                0x0000000040c55119                write_history_item_menu
                0x0000000040c55255                init_ml_control
                0x0000000040c54d11                load_conf_title
                0x0000000040c55219                read_next_layer_history
 .xdata         0x0000000040c55380       0x70 ./../../lib/ui_menulist2.o
                0x0000000000000800                . = BANK_CONTROL_SIZE
 *fill*         0x0000000040c553f0       0x10 00
                0x0000000040c94400                . = (((. + AP_BANK_SPACE) & ~ ((AP_BANK_SPACE - 0x1))) + OFFSET)

BANK_CONTROL_1_50
                0x0000000040c94c00      0x800
 ui_menulist_simple.o(.text .rodata .xdata)
 .text          0x0000000040c94c00      0x4e8 ./../../lib/ui_menulist_simple.o
                0x0000000040c94c01                menulist_simple_msg_deal
                0x0000000040c94d99                gui_menulist_simple
 .xdata         0x0000000040c950e8       0x70 ./../../lib/ui_menulist_simple.o
                0x0000000000000800                . = BANK_CONTROL_SIZE
 *fill*         0x0000000040c95158      0x2a8 00
                0x0000000040cd4400                . = (((. + AP_BANK_SPACE) & ~ ((AP_BANK_SPACE - 0x1))) + OFFSET)
                0x0000000040d14400                . = (((. + AP_BANK_SPACE) & ~ ((AP_BANK_SPACE - 0x1))) + OFFSET)
                0x0000000040d54400                . = (((. + AP_BANK_SPACE) & ~ ((AP_BANK_SPACE - 0x1))) + OFFSET)

BANK_CONTROL_1_53
                0x0000000040d54c00      0x800
 ui_parameter.o(.text .rodata .xdata)
 .text          0x0000000040d54c00      0x598 ./../../lib/ui_parameter.o
                0x0000000040d54d81                parambox_msg_deal
                0x0000000040d54c01                parambox_value_inc
                0x0000000040d54f2d                gui_set_parameter
                0x0000000040d54cc1                parambox_value_dec
                0x0000000000000800                . = BANK_CONTROL_SIZE
 *fill*         0x0000000040d55198      0x268 00
                0x0000000040d94400                . = (((. + AP_BANK_SPACE) & ~ ((AP_BANK_SPACE - 0x1))) + OFFSET)

BANK_CONTROL_1_54
                0x0000000040d94c00      0x800
 ui_textread.o(.text .rodata .xdata)
 .text          0x0000000040d94c00      0x4b0 ./../../lib/ui_textread.o
                0x0000000040d94d85                gui_text_read
                0x0000000040d94c01                textread_msg_deal
 .xdata         0x0000000040d950b0      0x2a0 ./../../lib/ui_textread.o
                0x0000000040d950f2                g_file_offset_bk
                0x0000000040d95338                text_file
                0x0000000040d950f6                g_need_draw
                0x0000000040d950f4                g_page_index
                0x0000000040d950f8                text_decode
                0x0000000040d950f0                g_file_offset
                0x0000000040d950f5                g_text_end_flag
                0x0000000040d950b0                g_offset_history
                0x0000000000000800                . = BANK_CONTROL_SIZE
 *fill*         0x0000000040d95350       0xb0 00
                0x0000000040dd4400                . = (((. + AP_BANK_SPACE) & ~ ((AP_BANK_SPACE - 0x1))) + OFFSET)

BANK_CONTROL_1_55
                0x0000000040dd4c00      0x800
 setting_comval.o(.text .rodata .xdata)
 .text          0x0000000040dd4c00      0x1cc ./../../lib/setting_comval.o
                0x0000000040dd4d21                com_get_default_dae
                0x0000000040dd4c01                com_get_default_setting
                0x0000000000000800                . = BANK_CONTROL_SIZE
 *fill*         0x0000000040dd4dcc      0x634 00
                0x0000000048414400                . = (BANK_UI_1_ADDR_BASE + (AP_BANK_SPACE * 0x10))
                0x0000000000014400                OFFSET = (. & 0x3ffff)
                0x0000000048414600                . = (. + 0x200)

BANK_UI_1_16    0x0000000048414600      0x600
 app_manager_bank.o(.text .rodata .xdata)
 .text          0x0000000048414600      0x1c4 ./../../lib/app_manager_bank.o
                0x0000000048414601                applib_init
                0x00000000484146f9                applib_quit
                0x0000000000000600                . = BANK_UI_RESERVE_SIZE
 *fill*         0x00000000484147c4      0x43c 00
                0x0000000048454600                . = ((((. + AP_BANK_SPACE) & ~ ((AP_BANK_SPACE - 0x1))) + OFFSET) + 0x200)

BANK_UI_1_17    0x0000000048454600      0x600
 app_timer_bank.o(.text .rodata .xdata)
 .text          0x0000000048454600      0x1ac ./../../lib/app_timer_bank.o
                0x00000000484546f5                restart_app_timer
                0x0000000048454601                set_app_timer
                0x0000000048454679                modify_app_timer
                0x000000004845473d                kill_app_timer
                0x00000000484546c5                stop_app_timer
                0x000000004845476d                init_app_timers
                0x0000000000000600                . = BANK_UI_RESERVE_SIZE
 *fill*         0x00000000484547ac      0x454 00
                0x0000000048494600                . = ((((. + AP_BANK_SPACE) & ~ ((AP_BANK_SPACE - 0x1))) + OFFSET) + 0x200)

BANK_UI_1_18    0x0000000048494600      0x600
 message_bank_init.o(.text .rodata .xdata)
 .text          0x0000000048494600       0x40 ./../../lib/message_bank_init.o
                0x0000000048494601                applib_message_init
 message_bank_send.o(.text .rodata .xdata)
 .text          0x0000000048494640      0x170 ./../../lib/message_bank_send.o
                0x0000000048494679                send_sync_msg
                0x0000000048494759                send_async_msg
                0x0000000048494799                reply_sync_msg
 message_bank_broadcast.o(.text .rodata .xdata)
 .text          0x00000000484947b0       0x74 ./../../lib/message_bank_broadcast.o
                0x00000000484947e9                broadcast_msg_sys
                0x00000000484947b1                broadcast_msg
                0x0000000000000600                . = BANK_UI_RESERVE_SIZE
 *fill*         0x0000000048494824      0x3dc 00
                0x00000000484d4600                . = ((((. + AP_BANK_SPACE) & ~ ((AP_BANK_SPACE - 0x1))) + OFFSET) + 0x200)

BANK_UI_1_19    0x00000000484d4600      0x600
                0x0000000000000600                . = BANK_UI_RESERVE_SIZE
 *fill*         0x00000000484d4600      0x600 00
                0x0000000048514600                . = ((((. + AP_BANK_SPACE) & ~ ((AP_BANK_SPACE - 0x1))) + OFFSET) + 0x200)

BANK_UI_1_20    0x0000000048514600      0x600
 common_config.o(.text .rodata .xdata)
 .text          0x0000000048514600      0x11c ./../../lib/common_config.o
                0x00000000485146bd                com_get_config_default
                0x0000000048514601                com_open_config_file
                0x000000004851464d                com_get_config_struct
                0x0000000000000600                . = BANK_UI_RESERVE_SIZE
 *fill*         0x000000004851471c      0x4e4 00
                0x0000000048554600                . = ((((. + AP_BANK_SPACE) & ~ ((AP_BANK_SPACE - 0x1))) + OFFSET) + 0x200)

BANK_UI_1_21    0x0000000048554600      0x600
 common_msgmap_data.o(.text .rodata .xdata)
 .rodata        0x0000000048554600      0x1ac ./../../lib/common_msgmap_data.o
                0x00000000485546d8                textread_key_map_list
                0x000000004855466c                keylock_list
                0x000000004855475c                limit_key_map_list
                0x0000000048554788                key_shortcut_list
                0x0000000048554684                menulist_key_map_list
                0x00000000485546f8                usbconnect_key_map_list
                0x0000000048554618                dialog_key_map_list
                0x00000000485546cc                shutoff_key_map_list
                0x0000000048554730                volume_key_map_list
                0x00000000485546a8                parameter_key_map_list
                0x0000000048554600                delete_key_map_list
                0x000000004855463c                directory_key_map_list
 common_msgmap.o(.text .rodata .xdata)
 .text          0x00000000485547ac       0xb4 ./../../lib/common_msgmap.o
                0x00000000485547ad                com_key_mapping
                0x0000000000000600                . = BANK_UI_RESERVE_SIZE
 *fill*         0x0000000048554860      0x3a0 00
                0x0000000048594400                . = (((. + AP_BANK_SPACE) & ~ ((AP_BANK_SPACE - 0x1))) + OFFSET)

BANK_UI_1_22    0x0000000048594400      0x800
 common_confmenu.o(.text .rodata .xdata)
 .text          0x0000000048594400      0x2c0 ./../../lib/common_confmenu.o
                0x0000000048594511                com_get_confmenu_item
                0x0000000048594575                com_get_confmenu_active
                0x0000000048594401                com_open_confmenu_file
                0x000000004859446d                com_close_confmenu_file
                0x0000000048594611                com_get_menu_active
                0x00000000485944a9                com_get_confmenu_title
                0x0000000000000800                . = BANK_UI_SIZE
 *fill*         0x00000000485946c0      0x540 00
                0x00000000485d4400                . = (((. + AP_BANK_SPACE) & ~ ((AP_BANK_SPACE - 0x1))) + OFFSET)

BANK_UI_1_23    0x00000000485d4400      0x800
 common_history.o(.text .rodata .xdata)
 .text          0x00000000485d4400      0x4d4 ./../../lib/common_history.o
                0x00000000485d4401                com_get_history_item
                0x00000000485d47c1                com_clear_app_history
                0x00000000485d455d                com_set_history_item
                0x00000000485d45d9                com_update_path_history
                0x00000000485d4735                com_clear_all_history
 .xdata         0x00000000485d48d4      0x200 ./../../lib/common_history.o
                0x00000000485d48d4                history_buf
                0x0000000000000800                . = BANK_UI_SIZE
 *fill*         0x00000000485d4ad4      0x12c 00
                0x0000000048614600                . = ((((. + AP_BANK_SPACE) & ~ ((AP_BANK_SPACE - 0x1))) + OFFSET) + 0x200)

BANK_UI_1_24    0x0000000048614600      0x600
 common_string.o(.text .rodata .xdata)
 .text          0x0000000048614600      0x498 ./../../lib/common_string.o
                0x0000000048614601                com_string_format
 .xdata         0x0000000048614a98      0x140 ./../../lib/common_string.o
                0x0000000048614a98                pattern_buf
                0x0000000048614b58                sub_buf
                0x0000000000000600                . = BANK_UI_RESERVE_SIZE
 *fill*         0x0000000048614bd8       0x28 00
                0x0000000048654600                . = ((((. + AP_BANK_SPACE) & ~ ((AP_BANK_SPACE - 0x1))) + OFFSET) + 0x200)

BANK_UI_1_25    0x0000000048654600      0x600
 common_string2.o(.text .rodata .xdata)
 .text          0x0000000048654600      0x468 ./../../lib/common_string2.o
                0x0000000048654695                com_ansi_to_unicode
                0x0000000048654885                com_dump_debug
                0x0000000048654721                com_ellipsis_to_longname
                0x0000000048654601                com_dot_to_shortname
                0x00000000486547bd                itoa_hex
 .xdata         0x0000000048654a68       0x34 ./../../lib/common_string2.o
                0x0000000048654a68                tmp_buffer
                0x0000000000000600                . = BANK_UI_RESERVE_SIZE
 *fill*         0x0000000048654a9c      0x164 00
                0x0000000048694600                . = ((((. + AP_BANK_SPACE) & ~ ((AP_BANK_SPACE - 0x1))) + OFFSET) + 0x200)

BANK_UI_1_26    0x0000000048694600      0x600
 common_key.o(.text .rodata .xdata)
 .text          0x0000000048694600      0x298 ./../../lib/common_key.o
                0x0000000048694601                com_gui_msg_hook
                0x000000004869487d                com_filter_key_hold
 common_msg.o(.text .rodata .xdata)
 .text          0x0000000048694898      0x2e4 ./../../lib/common_msg.o
                0x0000000048694899                com_app_msg_hook
                0x0000000000000600                . = BANK_UI_RESERVE_SIZE
 *fill*         0x0000000048694b7c       0x84 00
                0x00000000486d4600                . = ((((. + AP_BANK_SPACE) & ~ ((AP_BANK_SPACE - 0x1))) + OFFSET) + 0x200)

BANK_UI_1_27    0x00000000486d4600      0x600
 common_sound.o(.text .rodata .xdata)
 .text          0x00000000486d4600      0x444 ./../../lib/common_sound.o
                0x00000000486d4601                com_set_sound_keytone
                0x00000000486d4761                com_set_sound_volume
                0x00000000486d483d                com_set_sound_out
                0x00000000486d49d9                com_set_sound_record
                0x0000000000000600                . = BANK_UI_RESERVE_SIZE
 *fill*         0x00000000486d4a44      0x1bc 00
                0x0000000048714600                . = ((((. + AP_BANK_SPACE) & ~ ((AP_BANK_SPACE - 0x1))) + OFFSET) + 0x200)

BANK_UI_1_28    0x0000000048714600      0x600
 common_phy_volume_deal.o(.text .rodata .xdata)
 .text          0x0000000048714600       0x38 ./../../lib/common_phy_volume_deal.o
                0x0000000048714601                com_set_phy_volume
 common_phy_volume_table.o(.text .rodata .xdata)
 .rodata        0x0000000048714638      0x100 ./../../lib/common_phy_volume_table.o
                0x0000000048714638                g_hard_volume_table
                0x0000000000000600                . = BANK_UI_RESERVE_SIZE
 *fill*         0x0000000048714738      0x4c8 00
                0x0000000048754400                . = (((. + AP_BANK_SPACE) & ~ ((AP_BANK_SPACE - 0x1))) + OFFSET)
                0x0000000048794400                . = (((. + AP_BANK_SPACE) & ~ ((AP_BANK_SPACE - 0x1))) + OFFSET)

BANK_UI_1_30    0x0000000048794400      0x800
 ui_menulist_sub.o(.text .rodata .xdata)
 .text          0x0000000048794400      0x490 ./../../lib/ui_menulist_sub.o
                0x0000000048794401                menulist_select_next
                0x000000004879451d                menulist_select_prev
                0x000000004879463d                update_menulist_private
                0x0000000000000800                . = BANK_UI_SIZE
 *fill*         0x0000000048794890      0x370 00
                0x00000000487d4400                . = (((. + AP_BANK_SPACE) & ~ ((AP_BANK_SPACE - 0x1))) + OFFSET)

BANK_UI_1_31    0x00000000487d4400      0x800
 ui_menulist_sub2.o(.text .rodata .xdata)
 .text          0x00000000487d4400      0x568 ./../../lib/ui_menulist_sub2.o
                0x00000000487d4401                __init_action_title
                0x00000000487d44b1                menulist_msg_deal_gui
                0x0000000000000800                . = BANK_UI_SIZE
 *fill*         0x00000000487d4968      0x298 00
                0x0000000048814400                . = (((. + AP_BANK_SPACE) & ~ ((AP_BANK_SPACE - 0x1))) + OFFSET)

BANK_UI_1_32    0x0000000048814400      0x800
 ui_textread_dec.o(.text .rodata .xdata)
 .text          0x0000000048814400      0x4b4 ./../../lib/ui_textread_dec.o
                0x00000000488146a1                text_decode_one_page
 ui_textread_sub.o(.text .rodata .xdata)
 .text          0x00000000488148b4       0xe0 ./../../lib/ui_textread_sub.o
                0x000000004881493d                show_text_line
                0x00000000488148f9                sd_fread_sector
                0x00000000488148b5                sd_fseek_sector
 .rodata        0x0000000048814994       0x18 ./../../lib/ui_textread_sub.o
                0x0000000048814994                row_pos_x
                0x0000000048814998                row_pos_y
                0x0000000000000800                . = BANK_UI_SIZE
 *fill*         0x00000000488149ac      0x254 00
                0x0000000048854600                . = ((((. + AP_BANK_SPACE) & ~ ((AP_BANK_SPACE - 0x1))) + OFFSET) + 0x200)

BANK_UI_1_33    0x0000000048854600      0x600
 ui_headbar.o(.text .rodata .xdata)
 .text          0x0000000048854600      0x448 ./../../lib/ui_headbar.o
                0x0000000048854601                gui_set_headbar_mode
                0x00000000488546bd                gui_headbar
                0x0000000048854695                gui_get_headbar_mode
                0x0000000000000600                . = BANK_UI_RESERVE_SIZE
 *fill*         0x0000000048854a48      0x1b8 00
                0x0000000048894600                . = ((((. + AP_BANK_SPACE) & ~ ((AP_BANK_SPACE - 0x1))) + OFFSET) + 0x200)
                0x00000000488d4600                . = ((((. + AP_BANK_SPACE) & ~ ((AP_BANK_SPACE - 0x1))) + OFFSET) + 0x200)
                0x0000000048914600                . = ((((. + AP_BANK_SPACE) & ~ ((AP_BANK_SPACE - 0x1))) + OFFSET) + 0x200)

BANK_UI_1_36    0x0000000048914600      0x600
 ui_keylock.o(.text .rodata .xdata)
 .text          0x0000000048914600      0x418 ./../../lib/ui_keylock.o
                0x0000000048914715                gui_keylock
                0x0000000048914601                keylock_msg_deal
                0x0000000048914701                keylock_handle
                0x0000000000000600                . = BANK_UI_RESERVE_SIZE
 *fill*         0x0000000048914a18      0x1e8 00
                0x0000000048954600                . = ((((. + AP_BANK_SPACE) & ~ ((AP_BANK_SPACE - 0x1))) + OFFSET) + 0x200)

BANK_UI_1_37    0x0000000048954600      0x600
 ui_shutoff.o(.text .rodata .xdata)
 .text          0x0000000048954600      0x2ac ./../../lib/ui_shutoff.o
                0x000000004895465d                gui_shut_off
                0x0000000048954639                timer_shutoff_handle
                0x0000000048954601                show_shutoff_time
                0x0000000000000600                . = BANK_UI_RESERVE_SIZE
 *fill*         0x00000000489548ac      0x354 00
                0x0000000048994600                . = ((((. + AP_BANK_SPACE) & ~ ((AP_BANK_SPACE - 0x1))) + OFFSET) + 0x200)

BANK_UI_1_38    0x0000000048994600      0x600
 ui_screensave.o(.text .rodata .xdata)
 .text          0x0000000048994600      0x3f0 ./../../lib/ui_screensave.o
                0x0000000048994815                gui_screen_save_exit
                0x0000000048994601                gui_screen_save_enter
                0x000000004899499d                play_albumart_save
                0x00000000489949a9                play_albumart_save_init
                0x0000000000000600                . = BANK_UI_RESERVE_SIZE
 *fill*         0x00000000489949f0      0x210 00
                0x00000000489d4600                . = ((((. + AP_BANK_SPACE) & ~ ((AP_BANK_SPACE - 0x1))) + OFFSET) + 0x200)

BANK_UI_1_39    0x00000000489d4600      0x600
 ui_screensave_sub.o(.text .rodata .xdata)
 .text          0x00000000489d4600      0x278 ./../../lib/ui_screensave_sub.o
                0x00000000489d4601                draw_digit_clock
                0x00000000489d4811                digit_clock_handle
                0x00000000489d4825                album_art_handle
 .rodata        0x00000000489d4878       0x18 ./../../lib/ui_screensave_sub.o
                0x00000000489d4878                album_art_x
                0x00000000489d4884                album_art_y
                0x0000000000000600                . = BANK_UI_RESERVE_SIZE
 *fill*         0x00000000489d4890      0x370 00
                0x0000000048a14600                . = ((((. + AP_BANK_SPACE) & ~ ((AP_BANK_SPACE - 0x1))) + OFFSET) + 0x200)

BANK_UI_1_40    0x0000000048a14600      0x600
 ui_animation.o(.text .rodata .xdata)
 .text          0x0000000048a14600      0x2d8 ./../../lib/ui_animation.o
                0x0000000048a147b1                gui_logo
                0x0000000048a14601                gui_animation
                0x0000000000000600                . = BANK_UI_RESERVE_SIZE
 *fill*         0x0000000048a148d8      0x328 00
                0x0000000048a54600                . = ((((. + AP_BANK_SPACE) & ~ ((AP_BANK_SPACE - 0x1))) + OFFSET) + 0x200)

BANK_UI_1_41    0x0000000048a54600      0x600
 ui_volumebar.o(.text .rodata .xdata)
 .text          0x0000000048a54600      0x55c ./../../lib/ui_volumebar.o
                0x0000000048a54981                gui_volumebar
                0x0000000048a54849                ui_set_parameter_volume
                0x0000000048a54601                timeup_func_proc
                0x0000000048a54615                volumebar_msg_deal
                0x0000000000000600                . = BANK_UI_RESERVE_SIZE
 *fill*         0x0000000048a54b5c       0xa4 00
                0x0000000048a94600                . = ((((. + AP_BANK_SPACE) & ~ ((AP_BANK_SPACE - 0x1))) + OFFSET) + 0x200)

BANK_UI_1_42    0x0000000048a94600      0x600
 ui_volumebar_sub.o(.text .rodata .xdata)
 .text          0x0000000048a94600      0x30c ./../../lib/ui_volumebar_sub.o
                0x0000000048a94651                show_volumebar_ui
                0x0000000048a94601                show_volume_extra
                0x0000000000000600                . = BANK_UI_RESERVE_SIZE
 *fill*         0x0000000048a9490c      0x2f4 00
                0x0000000048ad4600                . = ((((. + AP_BANK_SPACE) & ~ ((AP_BANK_SPACE - 0x1))) + OFFSET) + 0x200)

BANK_UI_1_43    0x0000000048ad4600      0x600
 ui_dialog.o(.text .rodata .xdata)
 .text          0x0000000048ad4600      0x488 ./../../lib/ui_dialog.o
                0x0000000048ad47b1                gui_dialog
                0x0000000048ad4601                dialog_msg_deal
                0x0000000048ad4a2d                gui_dialog_msg
 .rodata        0x0000000048ad4a88       0x54 ./../../lib/ui_dialog.o
                0x0000000048ad4a88                button_list
                0x0000000000000600                . = BANK_UI_RESERVE_SIZE
 *fill*         0x0000000048ad4adc      0x124 00
                0x0000000048b14600                . = ((((. + AP_BANK_SPACE) & ~ ((AP_BANK_SPACE - 0x1))) + OFFSET) + 0x200)

BANK_UI_1_44    0x0000000048b14600      0x600
 ui_usbconnect.o(.text .rodata .xdata)
 .text          0x0000000048b14600      0x51c ./../../lib/ui_usbconnect.o
                0x0000000048b14665                usbconnect_msg_deal
                0x0000000048b14641                clear_usb_time
                0x0000000048b14929                gui_usbconnect
                0x0000000048b14601                timer_usb_handle
                0x0000000048b1482d                ui_dialog_usbconnect
 .rodata        0x0000000048b14b1c       0x14 ./../../lib/ui_usbconnect.o
                0x0000000048b14b20                usb_result
                0x0000000048b14b24                style_usb_time
                0x0000000048b14b1c                usb_buttons
                0x0000000000000600                . = BANK_UI_RESERVE_SIZE
 *fill*         0x0000000048b14b30       0xd0 00
                0x0000000048b54600                . = ((((. + AP_BANK_SPACE) & ~ ((AP_BANK_SPACE - 0x1))) + OFFSET) + 0x200)

BANK_UI_1_45    0x0000000048b54600      0x600
 miscellaneous.o(.text .rodata .xdata)
 .text          0x0000000048b54600       0xa8 ./../../lib/miscellaneous.o
                0x0000000048b54601                com_set_contrast
                0x0000000048b5463d                com_set_gui_direction
                0x0000000048b54679                com_get_gui_direction
                0x0000000048b54691                com_set_sys_comval
 .rodata        0x0000000048b546a8        0xc ./../../lib/miscellaneous.o
                0x0000000048b546a8                lightness_map_data
 app_sleep.o(.text .rodata .xdata)
 .text          0x0000000048b546b4       0x84 ./../../lib/app_sleep.o
                0x0000000048b546b5                com_app_sleep
 sys_timer.o(.text .rodata .xdata)
 .text          0x0000000048b54738      0x104 ./../../lib/sys_timer.o
                0x0000000048b54811                sys_timer_exit
                0x0000000048b54739                sys_timer_init
                0x0000000000000600                . = BANK_UI_RESERVE_SIZE
 *fill*         0x0000000048b5483c      0x3c4 00
                0x0000000048b94600                . = ((((. + AP_BANK_SPACE) & ~ ((AP_BANK_SPACE - 0x1))) + OFFSET) + 0x200)

BANK_UI_1_46    0x0000000048b94600      0x600
 sys_counter.o(.text .rodata .xdata)
 .text          0x0000000048b94600      0x2d4 ./../../lib/sys_counter.o
                0x0000000048b948d1                peripheral_detect_handle
                0x0000000048b94881                sys_status_handle
                0x0000000048b94601                sys_counter_handle
 common_charge.o(.text .rodata .xdata)
 .text          0x0000000048b948d4      0x18c ./../../lib/common_charge.o
                0x0000000048b948d5                com_battery_charge_change_deal
                0x0000000048b94939                com_battery_charge_deal
 ui_headbar_handle.o(.text .rodata .xdata)
 .text          0x0000000048b94a60       0xd4 ./../../lib/ui_headbar_handle.o
                0x0000000048b94a61                gui_headbar_handle
                0x0000000000000600                . = BANK_UI_RESERVE_SIZE
 *fill*         0x0000000048b94b34       0xcc 00
                0x0000000048bd4600                . = ((((. + AP_BANK_SPACE) & ~ ((AP_BANK_SPACE - 0x1))) + OFFSET) + 0x200)

BANK_UI_1_47    0x0000000048bd4600      0x600
 message_box.o(.text .rodata .xdata)
 .text          0x0000000048bd4600      0x500 ./../../lib/message_box.o
                0x0000000048bd4601                com_message_box
                0x0000000000000600                . = BANK_UI_RESERVE_SIZE
 *fill*         0x0000000048bd4b00      0x100 00
                0x0000000048c14600                . = ((((. + AP_BANK_SPACE) & ~ ((AP_BANK_SPACE - 0x1))) + OFFSET) + 0x200)

BANK_UI_1_48    0x0000000048c14600      0x600
 alarm_msg_dispatch.o(.text .rodata .xdata)
 .text          0x0000000048c14600      0x47c ./../../lib/alarm_msg_dispatch.o
                0x0000000048c14601                com_alarm_msg_dispatch
                0x0000000048c14881                ap_alarm_init
                0x0000000048c149ad                set_timer_msg
                0x0000000048c14921                CompareAndSet_timer_flag
                0x0000000048c147ad                ap_fmautorecord_init
                0x0000000000000600                . = BANK_UI_RESERVE_SIZE
 *fill*         0x0000000048c14a7c      0x184 00
                0x0000000048c54600                . = ((((. + AP_BANK_SPACE) & ~ ((AP_BANK_SPACE - 0x1))) + OFFSET) + 0x200)

BANK_UI_1_49    0x0000000048c54600      0x600
 alarm_msg_dispatch2.o(.text .rodata .xdata)
 .text          0x0000000048c54600      0x274 ./../../lib/alarm_msg_dispatch2.o
                0x0000000048c54601                __get_weekofday
                0x0000000048c546bd                compare_curtime
                0x0000000000000600                . = BANK_UI_RESERVE_SIZE
 *fill*         0x0000000048c54874      0x38c 00
                0x0000000048c94600                . = ((((. + AP_BANK_SPACE) & ~ ((AP_BANK_SPACE - 0x1))) + OFFSET) + 0x200)

BANK_UI_1_50    0x0000000048c94600      0x600
 antenna_detect.o(.text .rodata .xdata)
 .text          0x0000000048c94600       0xf0 ./../../lib/antenna_detect.o
                0x0000000048c94601                fm_set_mute
                0x0000000048c9465d                deal_antenna_detect
                0x0000000000000600                . = BANK_UI_RESERVE_SIZE
 *fill*         0x0000000048c946f0      0x510 00
                0x0000000048cd4600                . = ((((. + AP_BANK_SPACE) & ~ ((AP_BANK_SPACE - 0x1))) + OFFSET) + 0x200)

BANK_UI_1_51    0x0000000048cd4600      0x600
 common_setdae_init.o(.text .rodata .xdata)
 .text          0x0000000048cd4600      0x27c ./../../lib/common_setdae_init.o
                0x0000000048cd4601                com_inner_load_mdrc_param
                0x0000000048cd4745                com_load_mdrc_config
                0x0000000048cd47dd                com_reset_dae_config
                0x0000000048cd4829                com_init_dae_config
                0x0000000000000600                . = BANK_UI_RESERVE_SIZE
 *fill*         0x0000000048cd487c      0x384 00
                0x0000000048d14600                . = ((((. + AP_BANK_SPACE) & ~ ((AP_BANK_SPACE - 0x1))) + OFFSET) + 0x200)

BANK_UI_1_52    0x0000000048d14600      0x600
 common_keytone_play.o(.text .rodata .xdata)
 .text          0x0000000048d14600      0x3d0 ./../../lib/common_keytone_play.o
                0x0000000048d149ad                com_start_key_tone
                0x0000000048d148d9                keytone_set_dac_chan
                0x0000000048d148a5                keytone_play_thread
                0x0000000048d14601                keytone_init_set
                0x0000000048d147ad                keytone_play_loop
                0x0000000048d14635                keytone_send_to_asrc
                0x0000000048d14971                keytone_fifo_in
                0x0000000048d14911                keytone_set_dac_sample
                0x0000000048d14721                keytone_play_frame
                0x0000000048d1494d                keytone_play_deal
                0x0000000048d1491d                keytone_fifo_out
                0x0000000048d14995                keytone_play
 .rodata        0x0000000048d149d0        0xc ./../../lib/common_keytone_play.o
                0x0000000048d149d0                g_keytone_file
 .xdata         0x0000000048d149dc      0x200 ./../../lib/common_keytone_play.o
                0x0000000048d149dc                g_bitstream_buffer
                0x0000000000000600                . = BANK_UI_RESERVE_SIZE
 *fill*         0x0000000048d14bdc       0x24 00

.rel.dyn

.reginfo        0x0000000000000000       0x18
 .reginfo       0x0000000000000000       0x18 ./../../lib/applib_globe_data.o

.pdr            0x0000000000000000     0x3580
 .pdr           0x0000000000000000       0xc0 ./../../../psp_rel/lib/lib_enhanced/eh_id3_function.o
 .pdr           0x00000000000000c0       0xe0 ./obj/plist_sort_al.o
 .pdr           0x00000000000001a0       0x20 ./../../../psp_rel/lib/api.a(audio_device_op_entry.o)
 .pdr           0x00000000000001c0       0x20 ./../../../psp_rel/lib/api.a(key_op_entry.o)
 .pdr           0x00000000000001e0       0x20 ./../../../psp_rel/lib/api.a(libc_op_entry.o)
 .pdr           0x0000000000000200       0x20 ./../../../psp_rel/lib/api.a(sys_op_entry.o)
 .pdr           0x0000000000000220       0x20 ./../../../psp_rel/lib/api.a(vfs_op_entry.o)
 .pdr           0x0000000000000240       0xa0 ./obj/plist_rcode.o
 .pdr           0x00000000000002e0       0x60 ./../../lib/message_rcode.o
 .pdr           0x0000000000000340       0xa0 ./obj/plist_fsel.o
 .pdr           0x00000000000003e0       0x20 ./../../lib/app_timer_rcode.o
 .pdr           0x0000000000000400       0x40 ./../../../psp_rel/lib/ctor.o
 .pdr           0x0000000000000440      0x140 ./obj/plist_main.o
 .pdr           0x0000000000000580      0x100 ./obj/plist_scan_music.o
 .pdr           0x0000000000000680       0xa0 ./obj/plist_sort_music.o
 .pdr           0x0000000000000720       0x80 ./obj/plist_sort_music_sub.o
 .pdr           0x00000000000007a0       0xe0 ./obj/plist_other_list.o
 .pdr           0x0000000000000880       0xa0 ./obj/plist_operate_list.o
 .pdr           0x0000000000000920       0x80 ./obj/plist_ui_deal.o
 .pdr           0x00000000000009a0       0xe0 ./obj/plist_m3u_deal.o
 .pdr           0x0000000000000a80       0x40 ./obj/plist_creat_albumart_file.o
 .pdr           0x0000000000000ac0      0x140 ./obj/plist_sort_method.o
 .pdr           0x0000000000000c00       0xc0 ./obj/plist_scan_audible.o
 .pdr           0x0000000000000cc0       0x60 ./obj/plist_sort_audible.o
 .pdr           0x0000000000000d20       0xc0 ./obj/plist_scan_func.o
 .pdr           0x0000000000000de0       0x60 ./obj/plist_creat_userpl.o
 .pdr           0x0000000000000e40      0x120 ./obj/plist_sys_deal.o
 .pdr           0x0000000000000f60       0x40 ./obj/plist_m3u_deal_sub.o
 .pdr           0x0000000000000fa0       0x20 ./obj/plist_m3u_deal_sub1.o
 .pdr           0x0000000000000fc0       0x60 ./obj/plist_creat_bmk.o
 .pdr           0x0000000000001020       0xc0 ./obj/plist_creat_userpl_sub.o
 .pdr           0x00000000000010e0      0x140 ./../../../psp_rel/lib/lib_enhanced/eh_module.o
 .pdr           0x0000000000001220       0x20 ./../../../psp_rel/lib/api.a(lcd_op_entry.o)
 .pdr           0x0000000000001240       0x20 ./../../../psp_rel/lib/api.a(ui_op_entry.o)
 .pdr           0x0000000000001260       0x20 ./../../../psp_rel/lib/api.a(base_op_entry.o)
 .pdr           0x0000000000001280       0xc0 ./../../../psp_rel/lib/lib_enhanced/eh_id3_entry.o
 .pdr           0x0000000000001340       0x20 ./../../../psp_rel/lib/lib_enhanced/eh_id3_aac.o
 .pdr           0x0000000000001360       0xa0 ./../../../psp_rel/lib/lib_enhanced/eh_module_sub.o
 .pdr           0x0000000000001400       0x40 ./../../../psp_rel/lib/lib_enhanced/eh_id3_mp3_v1.o
 .pdr           0x0000000000001440       0xc0 ./../../../psp_rel/lib/lib_enhanced/eh_id3_mp3_v2.o
 .pdr           0x0000000000001500       0xc0 ./../../../psp_rel/lib/lib_enhanced/eh_id3_wma.o
 .pdr           0x00000000000015c0       0x80 ./../../../psp_rel/lib/lib_enhanced/eh_id3_ape.o
 .pdr           0x0000000000001640       0xc0 ./../../../psp_rel/lib/lib_enhanced/eh_id3_flac.o
 .pdr           0x0000000000001700       0xa0 ./../../../psp_rel/lib/lib_enhanced/eh_id3_ogg.o
 .pdr           0x00000000000017a0       0xa0 ./../../../psp_rel/lib/lib_enhanced/eh_id3_aa.o
 .pdr           0x0000000000001840       0xa0 ./../../../psp_rel/lib/lib_enhanced/eh_id3_aax.o
 .pdr           0x00000000000018e0       0x20 ./../../../psp_rel/lib/lib_enhanced/eh_id3_function_sub.o
 .pdr           0x0000000000001900       0x40 ./../../../psp_rel/lib/lib_enhanced/eh_id3_utf8_deal.o
 .pdr           0x0000000000001940       0xe0 ./../../lib/ui_menulist.o
 .pdr           0x0000000000001a20      0x160 ./../../lib/ui_menulist2.o
 .pdr           0x0000000000001b80      0x120 ./../../lib/ui_menulist_simple.o
 .pdr           0x0000000000001ca0       0xc0 ./../../lib/ui_parameter.o
 .pdr           0x0000000000001d60       0x80 ./../../lib/ui_textread.o
 .pdr           0x0000000000001de0       0x40 ./../../lib/setting_comval.o
 .pdr           0x0000000000001e20       0x40 ./../../lib/app_manager_bank.o
 .pdr           0x0000000000001e60       0xc0 ./../../lib/app_timer_bank.o
 .pdr           0x0000000000001f20       0x20 ./../../lib/message_bank_init.o
 .pdr           0x0000000000001f40       0x80 ./../../lib/message_bank_send.o
 .pdr           0x0000000000001fc0       0x40 ./../../lib/message_bank_broadcast.o
 .pdr           0x0000000000002000       0x60 ./../../lib/common_config.o
 .pdr           0x0000000000002060       0x20 ./../../lib/common_msgmap.o
 .pdr           0x0000000000002080       0xc0 ./../../lib/common_confmenu.o
 .pdr           0x0000000000002140       0xc0 ./../../lib/common_history.o
 .pdr           0x0000000000002200       0x40 ./../../lib/common_string.o
 .pdr           0x0000000000002240       0xa0 ./../../lib/common_string2.o
 .pdr           0x00000000000022e0      0x160 ./../../lib/common_key.o
 .pdr           0x0000000000002440      0x140 ./../../lib/common_msg.o
 .pdr           0x0000000000002580      0x140 ./../../lib/common_sound.o
 .pdr           0x00000000000026c0       0x20 ./../../lib/common_phy_volume_deal.o
 .pdr           0x00000000000026e0       0x60 ./../../lib/ui_menulist_sub.o
 .pdr           0x0000000000002740       0x60 ./../../lib/ui_menulist_sub2.o
 .pdr           0x00000000000027a0       0x60 ./../../lib/ui_textread_dec.o
 .pdr           0x0000000000002800       0x60 ./../../lib/ui_textread_sub.o
 .pdr           0x0000000000002860       0xc0 ./../../lib/ui_headbar.o
 .pdr           0x0000000000002920       0xe0 ./../../lib/ui_keylock.o
 .pdr           0x0000000000002a00       0xa0 ./../../lib/ui_shutoff.o
 .pdr           0x0000000000002aa0      0x180 ./../../lib/ui_screensave.o
 .pdr           0x0000000000002c20       0xa0 ./../../lib/ui_screensave_sub.o
 .pdr           0x0000000000002cc0       0xa0 ./../../lib/ui_animation.o
 .pdr           0x0000000000002d60       0xc0 ./../../lib/ui_volumebar.o
 .pdr           0x0000000000002e20       0x40 ./../../lib/ui_volumebar_sub.o
 .pdr           0x0000000000002e60       0xa0 ./../../lib/ui_dialog.o
 .pdr           0x0000000000002f00       0xe0 ./../../lib/ui_usbconnect.o
 .pdr           0x0000000000002fe0       0x80 ./../../lib/miscellaneous.o
 .pdr           0x0000000000003060       0x20 ./../../lib/app_sleep.o
 .pdr           0x0000000000003080       0x80 ./../../lib/sys_timer.o
 .pdr           0x0000000000003100       0x60 ./../../lib/sys_counter.o
 .pdr           0x0000000000003160       0x40 ./../../lib/common_charge.o
 .pdr           0x00000000000031a0       0x20 ./../../lib/ui_headbar_handle.o
 .pdr           0x00000000000031c0       0x80 ./../../lib/message_box.o
 .pdr           0x0000000000003240       0xa0 ./../../lib/alarm_msg_dispatch.o
 .pdr           0x00000000000032e0       0x40 ./../../lib/alarm_msg_dispatch2.o
 .pdr           0x0000000000003320       0x60 ./../../lib/antenna_detect.o
 .pdr           0x0000000000003380       0x80 ./../../lib/common_setdae_init.o
 .pdr           0x0000000000003400      0x180 ./../../lib/common_keytone_play.o

.mdebug.abi32   0x0000000000000000        0x0

.debug_abbrev   0x0000000000000000     0x81de
 .debug_abbrev  0x0000000000000000       0xcf ./../../lib/applib_globe_data.o
 .debug_abbrev  0x00000000000000cf      0x110 ./../../lib/applib_app_data.o
 .debug_abbrev  0x00000000000001df      0x13e ./../../../psp_rel/lib/lib_enhanced/eh_id3_function.o
 .debug_abbrev  0x000000000000031d      0x16b ./obj/plist_sort_al.o
 .debug_abbrev  0x0000000000000488       0x14 ./../../../psp_rel/lib/api.a(audio_device_op_entry.o)
 .debug_abbrev  0x000000000000049c       0x14 ./../../../psp_rel/lib/api.a(key_op_entry.o)
 .debug_abbrev  0x00000000000004b0       0x14 ./../../../psp_rel/lib/api.a(libc_op_entry.o)
 .debug_abbrev  0x00000000000004c4       0x14 ./../../../psp_rel/lib/api.a(sys_op_entry.o)
 .debug_abbrev  0x00000000000004d8       0x14 ./../../../psp_rel/lib/api.a(vfs_op_entry.o)
 .debug_abbrev  0x00000000000004ec      0x1b1 ./obj/plist_rcode.o
 .debug_abbrev  0x000000000000069d      0x16d ./../../lib/message_rcode.o
 .debug_abbrev  0x000000000000080a      0x14a ./obj/plist_fsel.o
 .debug_abbrev  0x0000000000000954       0xe6 ./../../lib/app_timer_rcode.o
 .debug_abbrev  0x0000000000000a3a      0x117 ./obj/plist_rdata.o
 .debug_abbrev  0x0000000000000b51       0xc2 ./../../../psp_rel/lib/lib_enhanced/eh_rdata.o
 .debug_abbrev  0x0000000000000c13       0x3b ./../../../psp_rel/lib/lib_enhanced/eh_id3_rdata.o
 .debug_abbrev  0x0000000000000c4e      0x146 ./../../lib/common_ui_data.o
 .debug_abbrev  0x0000000000000d94       0xb9 ./../../lib/common_func_data.o
 .debug_abbrev  0x0000000000000e4d       0xac ./../../../psp_rel/lib/ctor.o
 .debug_abbrev  0x0000000000000ef9      0x1f1 ./obj/plist_main.o
 .debug_abbrev  0x00000000000010ea      0x1bc ./obj/plist_scan_music.o
 .debug_abbrev  0x00000000000012a6      0x13d ./obj/plist_sort_music.o
 .debug_abbrev  0x00000000000013e3      0x147 ./obj/plist_sort_music_sub.o
 .debug_abbrev  0x000000000000152a      0x188 ./obj/plist_other_list.o
 .debug_abbrev  0x00000000000016b2      0x17d ./obj/plist_operate_list.o
 .debug_abbrev  0x000000000000182f      0x121 ./obj/plist_ui_deal.o
 .debug_abbrev  0x0000000000001950      0x1a6 ./obj/plist_m3u_deal.o
 .debug_abbrev  0x0000000000001af6      0x10f ./obj/plist_creat_albumart_file.o
 .debug_abbrev  0x0000000000001c05      0x1c5 ./obj/plist_sort_method.o
 .debug_abbrev  0x0000000000001dca      0x1a7 ./obj/plist_scan_audible.o
 .debug_abbrev  0x0000000000001f71      0x10c ./obj/plist_sort_audible.o
 .debug_abbrev  0x000000000000207d      0x120 ./obj/plist_scan_func.o
 .debug_abbrev  0x000000000000219d      0x133 ./obj/plist_creat_userpl.o
 .debug_abbrev  0x00000000000022d0      0x181 ./obj/plist_sys_deal.o
 .debug_abbrev  0x0000000000002451      0x147 ./obj/plist_m3u_deal_sub.o
 .debug_abbrev  0x0000000000002598      0x11a ./obj/plist_m3u_deal_sub1.o
 .debug_abbrev  0x00000000000026b2      0x131 ./obj/plist_creat_bmk.o
 .debug_abbrev  0x00000000000027e3      0x1b4 ./obj/plist_creat_userpl_sub.o
 .debug_abbrev  0x0000000000002997      0x1a5 ./../../../psp_rel/lib/lib_enhanced/eh_module.o
 .debug_abbrev  0x0000000000002b3c       0x14 ./../../../psp_rel/lib/api.a(lcd_op_entry.o)
 .debug_abbrev  0x0000000000002b50       0x14 ./../../../psp_rel/lib/api.a(ui_op_entry.o)
 .debug_abbrev  0x0000000000002b64       0x14 ./../../../psp_rel/lib/api.a(base_op_entry.o)
 .debug_abbrev  0x0000000000002b78      0x193 ./../../../psp_rel/lib/lib_enhanced/eh_id3_entry.o
 .debug_abbrev  0x0000000000002d0b       0x5f ./../../../psp_rel/lib/lib_enhanced/eh_id3_aac.o
 .debug_abbrev  0x0000000000002d6a      0x1bb ./../../../psp_rel/lib/lib_enhanced/eh_module_sub.o
 .debug_abbrev  0x0000000000002f25       0xd3 ./../../../psp_rel/lib/lib_enhanced/eh_id3_mp3_v1.o
 .debug_abbrev  0x0000000000002ff8      0x196 ./../../../psp_rel/lib/lib_enhanced/eh_id3_mp3_v2.o
 .debug_abbrev  0x000000000000318e      0x148 ./../../../psp_rel/lib/lib_enhanced/eh_id3_wma.o
 .debug_abbrev  0x00000000000032d6      0x126 ./../../../psp_rel/lib/lib_enhanced/eh_id3_ape.o
 .debug_abbrev  0x00000000000033fc      0x132 ./../../../psp_rel/lib/lib_enhanced/eh_id3_flac.o
 .debug_abbrev  0x000000000000352e      0x15b ./../../../psp_rel/lib/lib_enhanced/eh_id3_ogg.o
 .debug_abbrev  0x0000000000003689      0x115 ./../../../psp_rel/lib/lib_enhanced/eh_id3_aa.o
 .debug_abbrev  0x000000000000379e      0x13a ./../../../psp_rel/lib/lib_enhanced/eh_id3_aax.o
 .debug_abbrev  0x00000000000038d8       0x3d ./../../../psp_rel/lib/lib_enhanced/eh_id3_function_sub.o
 .debug_abbrev  0x0000000000003915       0xba ./../../../psp_rel/lib/lib_enhanced/eh_id3_utf8_deal.o
 .debug_abbrev  0x00000000000039cf      0x237 ./../../lib/ui_menulist.o
 .debug_abbrev  0x0000000000003c06      0x1f7 ./../../lib/ui_menulist2.o
 .debug_abbrev  0x0000000000003dfd      0x202 ./../../lib/ui_menulist_simple.o
 .debug_abbrev  0x0000000000003fff      0x24c ./../../lib/ui_parameter.o
 .debug_abbrev  0x000000000000424b      0x1f8 ./../../lib/ui_textread.o
 .debug_abbrev  0x0000000000004443      0x10b ./../../lib/setting_comval.o
 .debug_abbrev  0x000000000000454e      0x15f ./../../lib/app_manager_bank.o
 .debug_abbrev  0x00000000000046ad      0x198 ./../../lib/app_timer_bank.o
 .debug_abbrev  0x0000000000004845      0x12f ./../../lib/message_bank_init.o
 .debug_abbrev  0x0000000000004974      0x14b ./../../lib/message_bank_send.o
 .debug_abbrev  0x0000000000004abf      0x100 ./../../lib/message_bank_broadcast.o
 .debug_abbrev  0x0000000000004bbf       0xf5 ./../../lib/common_config.o
 .debug_abbrev  0x0000000000004cb4       0xde ./../../lib/common_msgmap_data.o
 .debug_abbrev  0x0000000000004d92      0x11b ./../../lib/common_msgmap.o
 .debug_abbrev  0x0000000000004ead      0x15a ./../../lib/common_confmenu.o
 .debug_abbrev  0x0000000000005007      0x156 ./../../lib/common_history.o
 .debug_abbrev  0x000000000000515d      0x13f ./../../lib/common_string.o
 .debug_abbrev  0x000000000000529c      0x121 ./../../lib/common_string2.o
 .debug_abbrev  0x00000000000053bd      0x1c4 ./../../lib/common_key.o
 .debug_abbrev  0x0000000000005581      0x182 ./../../lib/common_msg.o
 .debug_abbrev  0x0000000000005703      0x1e2 ./../../lib/common_sound.o
 .debug_abbrev  0x00000000000058e5       0xe4 ./../../lib/common_phy_volume_deal.o
 .debug_abbrev  0x00000000000059c9       0xaa ./../../lib/common_phy_volume_table.o
 .debug_abbrev  0x0000000000005a73      0x170 ./../../lib/ui_menulist_sub.o
 .debug_abbrev  0x0000000000005be3      0x184 ./../../lib/ui_menulist_sub2.o
 .debug_abbrev  0x0000000000005d67      0x1b9 ./../../lib/ui_textread_dec.o
 .debug_abbrev  0x0000000000005f20      0x13e ./../../lib/ui_textread_sub.o
 .debug_abbrev  0x000000000000605e      0x19a ./../../lib/ui_headbar.o
 .debug_abbrev  0x00000000000061f8      0x1ec ./../../lib/ui_keylock.o
 .debug_abbrev  0x00000000000063e4      0x1fd ./../../lib/ui_shutoff.o
 .debug_abbrev  0x00000000000065e1      0x1af ./../../lib/ui_screensave.o
 .debug_abbrev  0x0000000000006790      0x165 ./../../lib/ui_screensave_sub.o
 .debug_abbrev  0x00000000000068f5      0x1e7 ./../../lib/ui_animation.o
 .debug_abbrev  0x0000000000006adc      0x219 ./../../lib/ui_volumebar.o
 .debug_abbrev  0x0000000000006cf5      0x173 ./../../lib/ui_volumebar_sub.o
 .debug_abbrev  0x0000000000006e68      0x219 ./../../lib/ui_dialog.o
 .debug_abbrev  0x0000000000007081      0x208 ./../../lib/ui_usbconnect.o
 .debug_abbrev  0x0000000000007289      0x147 ./../../lib/miscellaneous.o
 .debug_abbrev  0x00000000000073d0      0x11d ./../../lib/app_sleep.o
 .debug_abbrev  0x00000000000074ed      0x116 ./../../lib/sys_timer.o
 .debug_abbrev  0x0000000000007603      0x15d ./../../lib/sys_counter.o
 .debug_abbrev  0x0000000000007760       0xdd ./../../lib/common_charge.o
 .debug_abbrev  0x000000000000783d      0x114 ./../../lib/ui_headbar_handle.o
 .debug_abbrev  0x0000000000007951      0x19c ./../../lib/message_box.o
 .debug_abbrev  0x0000000000007aed      0x1a1 ./../../lib/alarm_msg_dispatch.o
 .debug_abbrev  0x0000000000007c8e       0xe6 ./../../lib/alarm_msg_dispatch2.o
 .debug_abbrev  0x0000000000007d74      0x150 ./../../lib/antenna_detect.o
 .debug_abbrev  0x0000000000007ec4      0x12c ./../../lib/common_setdae_init.o
 .debug_abbrev  0x0000000000007ff0      0x1ee ./../../lib/common_keytone_play.o

.debug_info     0x0000000000000000    0x72057
 .debug_info    0x0000000000000000      0x954 ./../../lib/applib_globe_data.o
 .debug_info    0x0000000000000954     0x1859 ./../../lib/applib_app_data.o
 .debug_info    0x00000000000021ad      0x857 ./../../../psp_rel/lib/lib_enhanced/eh_id3_function.o
 .debug_info    0x0000000000002a04      0xa55 ./obj/plist_sort_al.o
 .debug_info    0x0000000000003459       0x67 ./../../../psp_rel/lib/api.a(audio_device_op_entry.o)
 .debug_info    0x00000000000034c0       0x5e ./../../../psp_rel/lib/api.a(key_op_entry.o)
 .debug_info    0x000000000000351e       0x5f ./../../../psp_rel/lib/api.a(libc_op_entry.o)
 .debug_info    0x000000000000357d       0x5e ./../../../psp_rel/lib/api.a(sys_op_entry.o)
 .debug_info    0x00000000000035db       0x5e ./../../../psp_rel/lib/api.a(vfs_op_entry.o)
 .debug_info    0x0000000000003639     0x1cb3 ./obj/plist_rcode.o
 .debug_info    0x00000000000052ec      0xefa ./../../lib/message_rcode.o
 .debug_info    0x00000000000061e6      0x83a ./obj/plist_fsel.o
 .debug_info    0x0000000000006a20      0x3f8 ./../../lib/app_timer_rcode.o
 .debug_info    0x0000000000006e18     0x194f ./obj/plist_rdata.o
 .debug_info    0x0000000000008767      0xa65 ./../../../psp_rel/lib/lib_enhanced/eh_rdata.o
 .debug_info    0x00000000000091cc      0x1a4 ./../../../psp_rel/lib/lib_enhanced/eh_id3_rdata.o
 .debug_info    0x0000000000009370     0x2e68 ./../../lib/common_ui_data.o
 .debug_info    0x000000000000c1d8      0x6a0 ./../../lib/common_func_data.o
 .debug_info    0x000000000000c878      0x326 ./../../../psp_rel/lib/ctor.o
 .debug_info    0x000000000000cb9e     0x12aa ./obj/plist_main.o
 .debug_info    0x000000000000de48     0x116e ./obj/plist_scan_music.o
 .debug_info    0x000000000000efb6      0xca2 ./obj/plist_sort_music.o
 .debug_info    0x000000000000fc58      0xd56 ./obj/plist_sort_music_sub.o
 .debug_info    0x00000000000109ae      0xb24 ./obj/plist_other_list.o
 .debug_info    0x00000000000114d2      0xce1 ./obj/plist_operate_list.o
 .debug_info    0x00000000000121b3      0x916 ./obj/plist_ui_deal.o
 .debug_info    0x0000000000012ac9      0xc25 ./obj/plist_m3u_deal.o
 .debug_info    0x00000000000136ee      0x6cd ./obj/plist_creat_albumart_file.o
 .debug_info    0x0000000000013dbb     0x1067 ./obj/plist_sort_method.o
 .debug_info    0x0000000000014e22      0xcc6 ./obj/plist_scan_audible.o
 .debug_info    0x0000000000015ae8      0x7a1 ./obj/plist_sort_audible.o
 .debug_info    0x0000000000016289      0x86b ./obj/plist_scan_func.o
 .debug_info    0x0000000000016af4      0x7c7 ./obj/plist_creat_userpl.o
 .debug_info    0x00000000000172bb      0xa5a ./obj/plist_sys_deal.o
 .debug_info    0x0000000000017d15      0xac4 ./obj/plist_m3u_deal_sub.o
 .debug_info    0x00000000000187d9      0xb41 ./obj/plist_m3u_deal_sub1.o
 .debug_info    0x000000000001931a      0x801 ./obj/plist_creat_bmk.o
 .debug_info    0x0000000000019b1b      0xc24 ./obj/plist_creat_userpl_sub.o
 .debug_info    0x000000000001a73f      0x888 ./../../../psp_rel/lib/lib_enhanced/eh_module.o
 .debug_info    0x000000000001afc7       0x5e ./../../../psp_rel/lib/api.a(lcd_op_entry.o)
 .debug_info    0x000000000001b025       0x5d ./../../../psp_rel/lib/api.a(ui_op_entry.o)
 .debug_info    0x000000000001b082       0x88 ./../../../psp_rel/lib/api.a(base_op_entry.o)
 .debug_info    0x000000000001b10a      0x8b8 ./../../../psp_rel/lib/lib_enhanced/eh_id3_entry.o
 .debug_info    0x000000000001b9c2      0x1e9 ./../../../psp_rel/lib/lib_enhanced/eh_id3_aac.o
 .debug_info    0x000000000001bbab      0xbbd ./../../../psp_rel/lib/lib_enhanced/eh_module_sub.o
 .debug_info    0x000000000001c768      0x516 ./../../../psp_rel/lib/lib_enhanced/eh_id3_mp3_v1.o
 .debug_info    0x000000000001cc7e      0x8f0 ./../../../psp_rel/lib/lib_enhanced/eh_id3_mp3_v2.o
 .debug_info    0x000000000001d56e      0xa1a ./../../../psp_rel/lib/lib_enhanced/eh_id3_wma.o
 .debug_info    0x000000000001df88      0x859 ./../../../psp_rel/lib/lib_enhanced/eh_id3_ape.o
 .debug_info    0x000000000001e7e1      0x771 ./../../../psp_rel/lib/lib_enhanced/eh_id3_flac.o
 .debug_info    0x000000000001ef52      0x7aa ./../../../psp_rel/lib/lib_enhanced/eh_id3_ogg.o
 .debug_info    0x000000000001f6fc      0x78f ./../../../psp_rel/lib/lib_enhanced/eh_id3_aa.o
 .debug_info    0x000000000001fe8b      0x86a ./../../../psp_rel/lib/lib_enhanced/eh_id3_aax.o
 .debug_info    0x00000000000206f5      0x1b6 ./../../../psp_rel/lib/lib_enhanced/eh_id3_function_sub.o
 .debug_info    0x00000000000208ab      0x3b5 ./../../../psp_rel/lib/lib_enhanced/eh_id3_utf8_deal.o
 .debug_info    0x0000000000020c60     0x40fe ./../../lib/ui_menulist.o
 .debug_info    0x0000000000024d5e     0x2276 ./../../lib/ui_menulist2.o
 .debug_info    0x0000000000026fd4     0x3fb5 ./../../lib/ui_menulist_simple.o
 .debug_info    0x000000000002af89     0x3d7c ./../../lib/ui_parameter.o
 .debug_info    0x000000000002ed05     0x3dc0 ./../../lib/ui_textread.o
 .debug_info    0x0000000000032ac5     0x1078 ./../../lib/setting_comval.o
 .debug_info    0x0000000000033b3d      0x537 ./../../lib/app_manager_bank.o
 .debug_info    0x0000000000034074      0x619 ./../../lib/app_timer_bank.o
 .debug_info    0x000000000003468d      0xa5a ./../../lib/message_bank_init.o
 .debug_info    0x00000000000350e7      0x693 ./../../lib/message_bank_send.o
 .debug_info    0x000000000003577a      0x48f ./../../lib/message_bank_broadcast.o
 .debug_info    0x0000000000035c09      0x499 ./../../lib/common_config.o
 .debug_info    0x00000000000360a2     0x2365 ./../../lib/common_msgmap_data.o
 .debug_info    0x0000000000038407     0x22d0 ./../../lib/common_msgmap.o
 .debug_info    0x000000000003a6d7     0x18b0 ./../../lib/common_confmenu.o
 .debug_info    0x000000000003bf87      0x91e ./../../lib/common_history.o
 .debug_info    0x000000000003c8a5      0x7f1 ./../../lib/common_string.o
 .debug_info    0x000000000003d096      0x94f ./../../lib/common_string2.o
 .debug_info    0x000000000003d9e5     0x104e ./../../lib/common_key.o
 .debug_info    0x000000000003ea33     0x28e1 ./../../lib/common_msg.o
 .debug_info    0x0000000000041314      0xa20 ./../../lib/common_sound.o
 .debug_info    0x0000000000041d34      0x395 ./../../lib/common_phy_volume_deal.o
 .debug_info    0x00000000000420c9      0x33c ./../../lib/common_phy_volume_table.o
 .debug_info    0x0000000000042405     0x1e96 ./../../lib/ui_menulist_sub.o
 .debug_info    0x000000000004429b     0x3596 ./../../lib/ui_menulist_sub2.o
 .debug_info    0x0000000000047831      0xb45 ./../../lib/ui_textread_dec.o
 .debug_info    0x0000000000048376      0x88a ./../../lib/ui_textread_sub.o
 .debug_info    0x0000000000048c00     0x1e39 ./../../lib/ui_headbar.o
 .debug_info    0x000000000004aa39     0x3a76 ./../../lib/ui_keylock.o
 .debug_info    0x000000000004e4af     0x3801 ./../../lib/ui_shutoff.o
 .debug_info    0x0000000000051cb0     0x2076 ./../../lib/ui_screensave.o
 .debug_info    0x0000000000053d26      0xd84 ./../../lib/ui_screensave_sub.o
 .debug_info    0x0000000000054aaa     0x372d ./../../lib/ui_animation.o
 .debug_info    0x00000000000581d7     0x3f76 ./../../lib/ui_volumebar.o
 .debug_info    0x000000000005c14d      0xf69 ./../../lib/ui_volumebar_sub.o
 .debug_info    0x000000000005d0b6     0x3b4d ./../../lib/ui_dialog.o
 .debug_info    0x0000000000060c03     0x3c92 ./../../lib/ui_usbconnect.o
 .debug_info    0x0000000000064895      0x93b ./../../lib/miscellaneous.o
 .debug_info    0x00000000000651d0     0x31d0 ./../../lib/app_sleep.o
 .debug_info    0x00000000000683a0      0x76d ./../../lib/sys_timer.o
 .debug_info    0x0000000000068b0d      0x7d0 ./../../lib/sys_counter.o
 .debug_info    0x00000000000692dd      0x79a ./../../lib/common_charge.o
 .debug_info    0x0000000000069a77      0x544 ./../../lib/ui_headbar_handle.o
 .debug_info    0x0000000000069fbb     0x36e9 ./../../lib/message_box.o
 .debug_info    0x000000000006d6a4     0x1e88 ./../../lib/alarm_msg_dispatch.o
 .debug_info    0x000000000006f52c      0x73a ./../../lib/alarm_msg_dispatch2.o
 .debug_info    0x000000000006fc66      0xae5 ./../../lib/antenna_detect.o
 .debug_info    0x000000000007074b      0xf9d ./../../lib/common_setdae_init.o
 .debug_info    0x00000000000716e8      0x96f ./../../lib/common_keytone_play.o

.debug_line     0x0000000000000000     0x8508
 .debug_line    0x0000000000000000       0xdd ./../../lib/applib_globe_data.o
 .debug_line    0x00000000000000dd       0xd4 ./../../lib/applib_app_data.o
 .debug_line    0x00000000000001b1      0x176 ./../../../psp_rel/lib/lib_enhanced/eh_id3_function.o
 .debug_line    0x0000000000000327      0x1a8 ./obj/plist_sort_al.o
 .debug_line    0x00000000000004cf       0x45 ./../../../psp_rel/lib/api.a(audio_device_op_entry.o)
 .debug_line    0x0000000000000514       0x3c ./../../../psp_rel/lib/api.a(key_op_entry.o)
 .debug_line    0x0000000000000550       0x3d ./../../../psp_rel/lib/api.a(libc_op_entry.o)
 .debug_line    0x000000000000058d       0x3c ./../../../psp_rel/lib/api.a(sys_op_entry.o)
 .debug_line    0x00000000000005c9       0x3c ./../../../psp_rel/lib/api.a(vfs_op_entry.o)
 .debug_line    0x0000000000000605      0x168 ./obj/plist_rcode.o
 .debug_line    0x000000000000076d      0x10d ./../../lib/message_rcode.o
 .debug_line    0x000000000000087a      0x142 ./obj/plist_fsel.o
 .debug_line    0x00000000000009bc       0xce ./../../lib/app_timer_rcode.o
 .debug_line    0x0000000000000a8a       0xfb ./obj/plist_rdata.o
 .debug_line    0x0000000000000b85       0xea ./../../../psp_rel/lib/lib_enhanced/eh_rdata.o
 .debug_line    0x0000000000000c6f       0x5b ./../../../psp_rel/lib/lib_enhanced/eh_id3_rdata.o
 .debug_line    0x0000000000000cca      0x14c ./../../lib/common_ui_data.o
 .debug_line    0x0000000000000e16       0xbb ./../../lib/common_func_data.o
 .debug_line    0x0000000000000ed1       0xcf ./../../../psp_rel/lib/ctor.o
 .debug_line    0x0000000000000fa0      0x1e2 ./obj/plist_main.o
 .debug_line    0x0000000000001182      0x1d9 ./obj/plist_scan_music.o
 .debug_line    0x000000000000135b      0x1a0 ./obj/plist_sort_music.o
 .debug_line    0x00000000000014fb      0x1c0 ./obj/plist_sort_music_sub.o
 .debug_line    0x00000000000016bb      0x196 ./obj/plist_other_list.o
 .debug_line    0x0000000000001851      0x190 ./obj/plist_operate_list.o
 .debug_line    0x00000000000019e1      0x135 ./obj/plist_ui_deal.o
 .debug_line    0x0000000000001b16      0x192 ./obj/plist_m3u_deal.o
 .debug_line    0x0000000000001ca8      0x121 ./obj/plist_creat_albumart_file.o
 .debug_line    0x0000000000001dc9      0x1f0 ./obj/plist_sort_method.o
 .debug_line    0x0000000000001fb9      0x19f ./obj/plist_scan_audible.o
 .debug_line    0x0000000000002158      0x121 ./obj/plist_sort_audible.o
 .debug_line    0x0000000000002279      0x130 ./obj/plist_scan_func.o
 .debug_line    0x00000000000023a9      0x14f ./obj/plist_creat_userpl.o
 .debug_line    0x00000000000024f8      0x158 ./obj/plist_sys_deal.o
 .debug_line    0x0000000000002650      0x1eb ./obj/plist_m3u_deal_sub.o
 .debug_line    0x000000000000283b      0x158 ./obj/plist_m3u_deal_sub1.o
 .debug_line    0x0000000000002993      0x133 ./obj/plist_creat_bmk.o
 .debug_line    0x0000000000002ac6      0x187 ./obj/plist_creat_userpl_sub.o
 .debug_line    0x0000000000002c4d      0x17d ./../../../psp_rel/lib/lib_enhanced/eh_module.o
 .debug_line    0x0000000000002dca       0x3c ./../../../psp_rel/lib/api.a(lcd_op_entry.o)
 .debug_line    0x0000000000002e06       0x3b ./../../../psp_rel/lib/api.a(ui_op_entry.o)
 .debug_line    0x0000000000002e41       0x66 ./../../../psp_rel/lib/api.a(base_op_entry.o)
 .debug_line    0x0000000000002ea7      0x1ba ./../../../psp_rel/lib/lib_enhanced/eh_id3_entry.o
 .debug_line    0x0000000000003061      0x121 ./../../../psp_rel/lib/lib_enhanced/eh_id3_aac.o
 .debug_line    0x0000000000003182      0x1ad ./../../../psp_rel/lib/lib_enhanced/eh_module_sub.o
 .debug_line    0x000000000000332f      0x15d ./../../../psp_rel/lib/lib_enhanced/eh_id3_mp3_v1.o
 .debug_line    0x000000000000348c      0x1e6 ./../../../psp_rel/lib/lib_enhanced/eh_id3_mp3_v2.o
 .debug_line    0x0000000000003672      0x1e5 ./../../../psp_rel/lib/lib_enhanced/eh_id3_wma.o
 .debug_line    0x0000000000003857      0x1d5 ./../../../psp_rel/lib/lib_enhanced/eh_id3_ape.o
 .debug_line    0x0000000000003a2c      0x18e ./../../../psp_rel/lib/lib_enhanced/eh_id3_flac.o
 .debug_line    0x0000000000003bba      0x1b6 ./../../../psp_rel/lib/lib_enhanced/eh_id3_ogg.o
 .debug_line    0x0000000000003d70      0x1b7 ./../../../psp_rel/lib/lib_enhanced/eh_id3_aa.o
 .debug_line    0x0000000000003f27      0x1be ./../../../psp_rel/lib/lib_enhanced/eh_id3_aax.o
 .debug_line    0x00000000000040e5       0x72 ./../../../psp_rel/lib/lib_enhanced/eh_id3_function_sub.o
 .debug_line    0x0000000000004157      0x121 ./../../../psp_rel/lib/lib_enhanced/eh_id3_utf8_deal.o
 .debug_line    0x0000000000004278      0x1a2 ./../../lib/ui_menulist.o
 .debug_line    0x000000000000441a      0x1b4 ./../../lib/ui_menulist2.o
 .debug_line    0x00000000000045ce      0x1b4 ./../../lib/ui_menulist_simple.o
 .debug_line    0x0000000000004782      0x1c6 ./../../lib/ui_parameter.o
 .debug_line    0x0000000000004948      0x1bc ./../../lib/ui_textread.o
 .debug_line    0x0000000000004b04      0x12e ./../../lib/setting_comval.o
 .debug_line    0x0000000000004c32      0x115 ./../../lib/app_manager_bank.o
 .debug_line    0x0000000000004d47      0x131 ./../../lib/app_timer_bank.o
 .debug_line    0x0000000000004e78       0xe4 ./../../lib/message_bank_init.o
 .debug_line    0x0000000000004f5c      0x11b ./../../lib/message_bank_send.o
 .debug_line    0x0000000000005077       0xe3 ./../../lib/message_bank_broadcast.o
 .debug_line    0x000000000000515a      0x115 ./../../lib/common_config.o
 .debug_line    0x000000000000526f       0xde ./../../lib/common_msgmap_data.o
 .debug_line    0x000000000000534d      0x107 ./../../lib/common_msgmap.o
 .debug_line    0x0000000000005454      0x139 ./../../lib/common_confmenu.o
 .debug_line    0x000000000000558d      0x163 ./../../lib/common_history.o
 .debug_line    0x00000000000056f0      0x148 ./../../lib/common_string.o
 .debug_line    0x0000000000005838      0x161 ./../../lib/common_string2.o
 .debug_line    0x0000000000005999      0x167 ./../../lib/common_key.o
 .debug_line    0x0000000000005b00      0x172 ./../../lib/common_msg.o
 .debug_line    0x0000000000005c72      0x176 ./../../lib/common_sound.o
 .debug_line    0x0000000000005de8       0xe0 ./../../lib/common_phy_volume_deal.o
 .debug_line    0x0000000000005ec8       0xc1 ./../../lib/common_phy_volume_table.o
 .debug_line    0x0000000000005f89      0x184 ./../../lib/ui_menulist_sub.o
 .debug_line    0x000000000000610d      0x19b ./../../lib/ui_menulist_sub2.o
 .debug_line    0x00000000000062a8      0x17c ./../../lib/ui_textread_dec.o
 .debug_line    0x0000000000006424      0x117 ./../../lib/ui_textread_sub.o
 .debug_line    0x000000000000653b      0x18a ./../../lib/ui_headbar.o
 .debug_line    0x00000000000066c5      0x1a3 ./../../lib/ui_keylock.o
 .debug_line    0x0000000000006868      0x164 ./../../lib/ui_shutoff.o
 .debug_line    0x00000000000069cc      0x1af ./../../lib/ui_screensave.o
 .debug_line    0x0000000000006b7b      0x157 ./../../lib/ui_screensave_sub.o
 .debug_line    0x0000000000006cd2      0x17b ./../../lib/ui_animation.o
 .debug_line    0x0000000000006e4d      0x1d5 ./../../lib/ui_volumebar.o
 .debug_line    0x0000000000007022      0x161 ./../../lib/ui_volumebar_sub.o
 .debug_line    0x0000000000007183      0x19f ./../../lib/ui_dialog.o
 .debug_line    0x0000000000007322      0x1b3 ./../../lib/ui_usbconnect.o
 .debug_line    0x00000000000074d5      0x109 ./../../lib/miscellaneous.o
 .debug_line    0x00000000000075de      0x112 ./../../lib/app_sleep.o
 .debug_line    0x00000000000076f0      0x10f ./../../lib/sys_timer.o
 .debug_line    0x00000000000077ff      0x1fa ./../../lib/sys_counter.o
 .debug_line    0x00000000000079f9      0x113 ./../../lib/common_charge.o
 .debug_line    0x0000000000007b0c      0x172 ./../../lib/ui_headbar_handle.o
 .debug_line    0x0000000000007c7e      0x1a4 ./../../lib/message_box.o
 .debug_line    0x0000000000007e22      0x1a6 ./../../lib/alarm_msg_dispatch.o
 .debug_line    0x0000000000007fc8      0x12e ./../../lib/alarm_msg_dispatch2.o
 .debug_line    0x00000000000080f6      0x121 ./../../lib/antenna_detect.o
 .debug_line    0x0000000000008217      0x12d ./../../lib/common_setdae_init.o
 .debug_line    0x0000000000008344      0x1c4 ./../../lib/common_keytone_play.o

.debug_pubnames
                0x0000000000000000     0x2e94
 .debug_pubnames
                0x0000000000000000       0xb4 ./../../lib/applib_globe_data.o
 .debug_pubnames
                0x00000000000000b4       0x99 ./../../lib/applib_app_data.o
 .debug_pubnames
                0x000000000000014d       0x27 ./../../../psp_rel/lib/lib_enhanced/eh_id3_function.o
 .debug_pubnames
                0x0000000000000174       0x87 ./obj/plist_sort_al.o
 .debug_pubnames
                0x00000000000001fb       0x6e ./obj/plist_rcode.o
 .debug_pubnames
                0x0000000000000269       0x42 ./../../lib/message_rcode.o
 .debug_pubnames
                0x00000000000002ab       0x5d ./obj/plist_fsel.o
 .debug_pubnames
                0x0000000000000308       0x24 ./../../lib/app_timer_rcode.o
 .debug_pubnames
                0x000000000000032c      0x50a ./obj/plist_rdata.o
 .debug_pubnames
                0x0000000000000836      0x328 ./../../../psp_rel/lib/lib_enhanced/eh_rdata.o
 .debug_pubnames
                0x0000000000000b5e       0x21 ./../../../psp_rel/lib/lib_enhanced/eh_id3_rdata.o
 .debug_pubnames
                0x0000000000000b7f      0x3fe ./../../lib/common_ui_data.o
 .debug_pubnames
                0x0000000000000f7d       0xbd ./../../lib/common_func_data.o
 .debug_pubnames
                0x000000000000103a       0x30 ./../../../psp_rel/lib/ctor.o
 .debug_pubnames
                0x000000000000106a       0x6f ./obj/plist_main.o
 .debug_pubnames
                0x00000000000010d9       0x4e ./obj/plist_scan_music.o
 .debug_pubnames
                0x0000000000001127       0x26 ./obj/plist_sort_music.o
 .debug_pubnames
                0x000000000000114d       0x71 ./obj/plist_sort_music_sub.o
 .debug_pubnames
                0x00000000000011be       0x3c ./obj/plist_other_list.o
 .debug_pubnames
                0x00000000000011fa       0x4e ./obj/plist_operate_list.o
 .debug_pubnames
                0x0000000000001248       0x71 ./obj/plist_ui_deal.o
 .debug_pubnames
                0x00000000000012b9       0x99 ./obj/plist_m3u_deal.o
 .debug_pubnames
                0x0000000000001352       0x26 ./obj/plist_creat_albumart_file.o
 .debug_pubnames
                0x0000000000001378       0xe3 ./obj/plist_sort_method.o
 .debug_pubnames
                0x000000000000145b       0x28 ./obj/plist_scan_audible.o
 .debug_pubnames
                0x0000000000001483       0x28 ./obj/plist_sort_audible.o
 .debug_pubnames
                0x00000000000014ab       0x87 ./obj/plist_scan_func.o
 .debug_pubnames
                0x0000000000001532       0x29 ./obj/plist_creat_userpl.o
 .debug_pubnames
                0x000000000000155b       0x52 ./obj/plist_sys_deal.o
 .debug_pubnames
                0x00000000000015ad       0x3d ./obj/plist_m3u_deal_sub.o
 .debug_pubnames
                0x00000000000015ea       0x24 ./obj/plist_m3u_deal_sub1.o
 .debug_pubnames
                0x000000000000160e       0x3d ./obj/plist_creat_bmk.o
 .debug_pubnames
                0x000000000000164b       0x8a ./obj/plist_creat_userpl_sub.o
 .debug_pubnames
                0x00000000000016d5       0xe6 ./../../../psp_rel/lib/lib_enhanced/eh_module.o
 .debug_pubnames
                0x00000000000017bb      0x12c ./../../../psp_rel/lib/lib_enhanced/eh_id3_entry.o
 .debug_pubnames
                0x00000000000018e7       0x22 ./../../../psp_rel/lib/lib_enhanced/eh_id3_aac.o
 .debug_pubnames
                0x0000000000001909       0x3c ./../../../psp_rel/lib/lib_enhanced/eh_module_sub.o
 .debug_pubnames
                0x0000000000001945       0x38 ./../../../psp_rel/lib/lib_enhanced/eh_id3_mp3_v1.o
 .debug_pubnames
                0x000000000000197d       0x60 ./../../../psp_rel/lib/lib_enhanced/eh_id3_mp3_v2.o
 .debug_pubnames
                0x00000000000019dd       0x22 ./../../../psp_rel/lib/lib_enhanced/eh_id3_wma.o
 .debug_pubnames
                0x00000000000019ff       0x45 ./../../../psp_rel/lib/lib_enhanced/eh_id3_ape.o
 .debug_pubnames
                0x0000000000001a44       0x23 ./../../../psp_rel/lib/lib_enhanced/eh_id3_flac.o
 .debug_pubnames
                0x0000000000001a67       0x56 ./../../../psp_rel/lib/lib_enhanced/eh_id3_ogg.o
 .debug_pubnames
                0x0000000000001abd       0x42 ./../../../psp_rel/lib/lib_enhanced/eh_id3_aa.o
 .debug_pubnames
                0x0000000000001aff       0x36 ./../../../psp_rel/lib/lib_enhanced/eh_id3_aax.o
 .debug_pubnames
                0x0000000000001b35       0x29 ./../../../psp_rel/lib/lib_enhanced/eh_id3_utf8_deal.o
 .debug_pubnames
                0x0000000000001b5e       0x55 ./../../lib/ui_menulist.o
 .debug_pubnames
                0x0000000000001bb3      0x10d ./../../lib/ui_menulist2.o
 .debug_pubnames
                0x0000000000001cc0       0x47 ./../../lib/ui_menulist_simple.o
 .debug_pubnames
                0x0000000000001d07       0x6c ./../../lib/ui_parameter.o
 .debug_pubnames
                0x0000000000001d73       0xc9 ./../../lib/ui_textread.o
 .debug_pubnames
                0x0000000000001e3c       0x46 ./../../lib/setting_comval.o
 .debug_pubnames
                0x0000000000001e82       0x32 ./../../lib/app_manager_bank.o
 .debug_pubnames
                0x0000000000001eb4       0x89 ./../../lib/app_timer_bank.o
 .debug_pubnames
                0x0000000000001f3d       0x2a ./../../lib/message_bank_init.o
 .debug_pubnames
                0x0000000000001f67       0x4a ./../../lib/message_bank_send.o
 .debug_pubnames
                0x0000000000001fb1       0x3a ./../../lib/message_bank_broadcast.o
 .debug_pubnames
                0x0000000000001feb       0x60 ./../../lib/common_config.o
 .debug_pubnames
                0x000000000000204b      0x137 ./../../lib/common_msgmap_data.o
 .debug_pubnames
                0x0000000000002182       0x26 ./../../lib/common_msgmap.o
 .debug_pubnames
                0x00000000000021a8       0xb2 ./../../lib/common_confmenu.o
 .debug_pubnames
                0x000000000000225a       0xa4 ./../../lib/common_history.o
 .debug_pubnames
                0x00000000000022fe       0x44 ./../../lib/common_string.o
 .debug_pubnames
                0x0000000000002342       0x8f ./../../lib/common_string2.o
 .debug_pubnames
                0x00000000000023d1       0x3f ./../../lib/common_key.o
 .debug_pubnames
                0x0000000000002410       0x27 ./../../lib/common_msg.o
 .debug_pubnames
                0x0000000000002437       0x74 ./../../lib/common_sound.o
 .debug_pubnames
                0x00000000000024ab       0x29 ./../../lib/common_phy_volume_deal.o
 .debug_pubnames
                0x00000000000024d4       0x2a ./../../lib/common_phy_volume_table.o
 .debug_pubnames
                0x00000000000024fe       0x60 ./../../lib/ui_menulist_sub.o
 .debug_pubnames
                0x000000000000255e       0x44 ./../../lib/ui_menulist_sub2.o
 .debug_pubnames
                0x00000000000025a2       0x2b ./../../lib/ui_textread_dec.o
 .debug_pubnames
                0x00000000000025cd       0x69 ./../../lib/ui_textread_sub.o
 .debug_pubnames
                0x0000000000002636       0x54 ./../../lib/ui_headbar.o
 .debug_pubnames
                0x000000000000268a       0x4a ./../../lib/ui_keylock.o
 .debug_pubnames
                0x00000000000026d4       0x52 ./../../lib/ui_shutoff.o
 .debug_pubnames
                0x0000000000002726       0x78 ./../../lib/ui_screensave.o
 .debug_pubnames
                0x000000000000279e       0x73 ./../../lib/ui_screensave_sub.o
 .debug_pubnames
                0x0000000000002811       0x31 ./../../lib/ui_animation.o
 .debug_pubnames
                0x0000000000002842       0x6c ./../../lib/ui_volumebar.o
 .debug_pubnames
                0x00000000000028ae       0x3e ./../../lib/ui_volumebar_sub.o
 .debug_pubnames
                0x00000000000028ec       0x58 ./../../lib/ui_dialog.o
 .debug_pubnames
                0x0000000000002944       0xb0 ./../../lib/ui_usbconnect.o
 .debug_pubnames
                0x00000000000029f4       0x89 ./../../lib/miscellaneous.o
 .debug_pubnames
                0x0000000000002a7d       0x24 ./../../lib/app_sleep.o
 .debug_pubnames
                0x0000000000002aa1       0x38 ./../../lib/sys_timer.o
 .debug_pubnames
                0x0000000000002ad9       0x5c ./../../lib/sys_counter.o
 .debug_pubnames
                0x0000000000002b35       0x51 ./../../lib/common_charge.o
 .debug_pubnames
                0x0000000000002b86       0x29 ./../../lib/ui_headbar_handle.o
 .debug_pubnames
                0x0000000000002baf       0x26 ./../../lib/message_box.o
 .debug_pubnames
                0x0000000000002bd5       0x87 ./../../lib/alarm_msg_dispatch.o
 .debug_pubnames
                0x0000000000002c5c       0x3a ./../../lib/alarm_msg_dispatch2.o
 .debug_pubnames
                0x0000000000002c96       0x3a ./../../lib/antenna_detect.o
 .debug_pubnames
                0x0000000000002cd0       0x7a ./../../lib/common_setdae_init.o
 .debug_pubnames
                0x0000000000002d4a      0x14a ./../../lib/common_keytone_play.o

.debug_str      0x0000000000000000     0x4708
 .debug_str     0x0000000000000000       0x12 ./../../lib/applib_globe_data.o
 .debug_str     0x0000000000000012       0x12 ./../../lib/applib_app_data.o
 .debug_str     0x0000000000000024       0x25 ./../../../psp_rel/lib/lib_enhanced/eh_id3_function.o
 .debug_str     0x0000000000000049       0x1a ./obj/plist_sort_al.o
 .debug_str     0x0000000000000063       0x29 ./obj/plist_rcode.o
 .debug_str     0x000000000000008c     0x1c0f ./../../lib/message_rcode.o
                                       0x1cd4 (size before relaxing)
 .debug_str     0x0000000000001c9b       0x20 ./obj/plist_fsel.o
 .debug_str     0x0000000000001cbb       0x80 ./../../lib/app_timer_rcode.o
                                        0x39c (size before relaxing)
 .debug_str     0x0000000000001d3b       0x94 ./obj/plist_rdata.o
 .debug_str     0x0000000000001dcf       0x12 ./../../../psp_rel/lib/lib_enhanced/eh_rdata.o
 .debug_str     0x0000000000001de1       0x12 ./../../../psp_rel/lib/lib_enhanced/eh_id3_rdata.o
 .debug_str     0x0000000000001df3       0xbe ./../../lib/common_ui_data.o
 .debug_str     0x0000000000001eb1       0x12 ./../../lib/common_func_data.o
 .debug_str     0x0000000000001ec3       0x12 ./../../../psp_rel/lib/ctor.o
 .debug_str     0x0000000000001ed5       0x30 ./obj/plist_main.o
 .debug_str     0x0000000000001f05       0x25 ./obj/plist_scan_music.o
 .debug_str     0x0000000000001f2a       0x22 ./obj/plist_sort_music.o
 .debug_str     0x0000000000001f4c       0x26 ./obj/plist_sort_music_sub.o
 .debug_str     0x0000000000001f72       0x1b ./obj/plist_other_list.o
 .debug_str     0x0000000000001f8d       0x1a ./obj/plist_operate_list.o
 .debug_str     0x0000000000001fa7       0x49 ./obj/plist_ui_deal.o
 .debug_str     0x0000000000001ff0       0x26 ./obj/plist_m3u_deal.o
 .debug_str     0x0000000000002016       0x12 ./obj/plist_creat_albumart_file.o
 .debug_str     0x0000000000002028       0x5d ./obj/plist_sort_method.o
 .debug_str     0x0000000000002085       0x25 ./obj/plist_scan_audible.o
 .debug_str     0x00000000000020aa       0x1a ./obj/plist_sort_audible.o
 .debug_str     0x00000000000020c4       0x12 ./obj/plist_scan_func.o
 .debug_str     0x00000000000020d6       0x12 ./obj/plist_creat_userpl.o
 .debug_str     0x00000000000020e8       0x1d ./obj/plist_sys_deal.o
 .debug_str     0x0000000000002105       0x42 ./obj/plist_m3u_deal_sub.o
 .debug_str     0x0000000000002147       0x88 ./obj/plist_m3u_deal_sub1.o
 .debug_str     0x00000000000021cf       0x1e ./obj/plist_creat_bmk.o
 .debug_str     0x00000000000021ed       0x56 ./obj/plist_creat_userpl_sub.o
 .debug_str     0x0000000000002243       0x25 ./../../../psp_rel/lib/lib_enhanced/eh_module.o
 .debug_str     0x0000000000002268       0x1b ./../../../psp_rel/lib/lib_enhanced/eh_id3_entry.o
 .debug_str     0x0000000000002283       0x12 ./../../../psp_rel/lib/lib_enhanced/eh_id3_aac.o
 .debug_str     0x0000000000002295       0x83 ./../../../psp_rel/lib/lib_enhanced/eh_module_sub.o
 .debug_str     0x0000000000002318       0x12 ./../../../psp_rel/lib/lib_enhanced/eh_id3_mp3_v1.o
 .debug_str     0x000000000000232a       0x40 ./../../../psp_rel/lib/lib_enhanced/eh_id3_mp3_v2.o
 .debug_str     0x000000000000236a       0x12 ./../../../psp_rel/lib/lib_enhanced/eh_id3_wma.o
 .debug_str     0x000000000000237c       0x12 ./../../../psp_rel/lib/lib_enhanced/eh_id3_ape.o
 .debug_str     0x000000000000238e       0x12 ./../../../psp_rel/lib/lib_enhanced/eh_id3_flac.o
 .debug_str     0x00000000000023a0       0x1f ./../../../psp_rel/lib/lib_enhanced/eh_id3_ogg.o
 .debug_str     0x00000000000023bf       0x1d ./../../../psp_rel/lib/lib_enhanced/eh_id3_aa.o
 .debug_str     0x00000000000023dc       0x12 ./../../../psp_rel/lib/lib_enhanced/eh_id3_aax.o
 .debug_str     0x00000000000023ee       0x12 ./../../../psp_rel/lib/lib_enhanced/eh_id3_function_sub.o
 .debug_str     0x0000000000002400       0x12 ./../../../psp_rel/lib/lib_enhanced/eh_id3_utf8_deal.o
 .debug_str     0x0000000000002412       0x7a ./../../lib/ui_menulist.o
 .debug_str     0x000000000000248c       0xb7 ./../../lib/ui_menulist2.o
 .debug_str     0x0000000000002543       0x7a ./../../lib/ui_menulist_simple.o
 .debug_str     0x00000000000025bd       0x55 ./../../lib/ui_parameter.o
 .debug_str     0x0000000000002612       0x2f ./../../lib/ui_textread.o
 .debug_str     0x0000000000002641       0x4c ./../../lib/setting_comval.o
 .debug_str     0x000000000000268d       0xa9 ./../../lib/app_manager_bank.o
                                        0x4a9 (size before relaxing)
 .debug_str     0x0000000000002736       0xf4 ./../../lib/app_timer_bank.o
                                        0x471 (size before relaxing)
 .debug_str     0x000000000000282a      0xc6f ./../../lib/message_bank_init.o
                                       0x10c9 (size before relaxing)
 .debug_str     0x0000000000003499       0x8d ./../../lib/message_bank_send.o
                                        0x4fc (size before relaxing)
 .debug_str     0x0000000000003526       0x39 ./../../lib/message_bank_broadcast.o
                                        0x402 (size before relaxing)
 .debug_str     0x000000000000355f       0xd3 ./../../lib/common_config.o
                                        0x3f4 (size before relaxing)
 .debug_str     0x0000000000003632       0x12 ./../../lib/common_msgmap_data.o
 .debug_str     0x0000000000003644       0x12 ./../../lib/common_msgmap.o
 .debug_str     0x0000000000003656       0x2b ./../../lib/common_confmenu.o
 .debug_str     0x0000000000003681       0x43 ./../../lib/common_history.o
 .debug_str     0x00000000000036c4       0x1b ./../../lib/common_string.o
 .debug_str     0x00000000000036df       0x12 ./../../lib/common_string2.o
 .debug_str     0x00000000000036f1       0x1f ./../../lib/common_key.o
 .debug_str     0x0000000000003710       0x29 ./../../lib/common_msg.o
 .debug_str     0x0000000000003739       0x46 ./../../lib/common_sound.o
 .debug_str     0x000000000000377f       0xcf ./../../lib/common_phy_volume_deal.o
                                        0x384 (size before relaxing)
 .debug_str     0x000000000000384e       0x1a ./../../lib/common_phy_volume_table.o
                                        0x33e (size before relaxing)
 .debug_str     0x0000000000003868       0x50 ./../../lib/ui_menulist_sub.o
 .debug_str     0x00000000000038b8       0x5e ./../../lib/ui_menulist_sub2.o
 .debug_str     0x0000000000003916       0x3b ./../../lib/ui_textread_dec.o
 .debug_str     0x0000000000003951       0x1e ./../../lib/ui_textread_sub.o
 .debug_str     0x000000000000396f       0x2a ./../../lib/ui_headbar.o
 .debug_str     0x0000000000003999       0x35 ./../../lib/ui_keylock.o
 .debug_str     0x00000000000039ce       0x2b ./../../lib/ui_shutoff.o
 .debug_str     0x00000000000039f9       0x12 ./../../lib/ui_screensave.o
 .debug_str     0x0000000000003a0b       0x1e ./../../lib/ui_screensave_sub.o
 .debug_str     0x0000000000003a29       0x43 ./../../lib/ui_animation.o
 .debug_str     0x0000000000003a6c       0x50 ./../../lib/ui_volumebar.o
 .debug_str     0x0000000000003abc       0x4c ./../../lib/ui_volumebar_sub.o
 .debug_str     0x0000000000003b08       0x6d ./../../lib/ui_dialog.o
 .debug_str     0x0000000000003b75       0x6d ./../../lib/ui_usbconnect.o
 .debug_str     0x0000000000003be2       0x1c ./../../lib/miscellaneous.o
 .debug_str     0x0000000000003bfe       0x12 ./../../lib/app_sleep.o
 .debug_str     0x0000000000003c10       0x12 ./../../lib/sys_timer.o
 .debug_str     0x0000000000003c22      0x3db ./../../lib/sys_counter.o
                                        0x7cd (size before relaxing)
 .debug_str     0x0000000000003ffd       0x12 ./../../lib/common_charge.o
 .debug_str     0x000000000000400f      0x33d ./../../lib/ui_headbar_handle.o
                                        0x646 (size before relaxing)
 .debug_str     0x000000000000434c       0x1e ./../../lib/message_box.o
 .debug_str     0x000000000000436a       0xca ./../../lib/alarm_msg_dispatch.o
 .debug_str     0x0000000000004434       0x12 ./../../lib/alarm_msg_dispatch2.o
 .debug_str     0x0000000000004446       0x12 ./../../lib/antenna_detect.o
 .debug_str     0x0000000000004458       0x3f ./../../lib/common_setdae_init.o
 .debug_str     0x0000000000004497      0x271 ./../../lib/common_keytone_play.o
                                        0x745 (size before relaxing)

.comment        0x0000000000000000     0x1020
 .comment       0x0000000000000000       0x2b ./../../lib/applib_globe_data.o
 .comment       0x000000000000002b       0x2b ./../../lib/applib_app_data.o
 .comment       0x0000000000000056       0x2b ./../../../psp_rel/lib/lib_enhanced/eh_id3_function.o
 .comment       0x0000000000000081       0x2b ./obj/plist_sort_al.o
 .comment       0x00000000000000ac       0x2b ./obj/plist_rcode.o
 .comment       0x00000000000000d7       0x2b ./../../lib/message_rcode.o
 .comment       0x0000000000000102       0x2b ./obj/plist_fsel.o
 .comment       0x000000000000012d       0x2b ./../../lib/app_timer_rcode.o
 .comment       0x0000000000000158       0x2b ./obj/plist_rdata.o
 .comment       0x0000000000000183       0x2b ./../../../psp_rel/lib/lib_enhanced/eh_rdata.o
 .comment       0x00000000000001ae       0x2b ./../../../psp_rel/lib/lib_enhanced/eh_id3_rdata.o
 .comment       0x00000000000001d9       0x2b ./../../lib/common_ui_data.o
 .comment       0x0000000000000204       0x2b ./../../lib/common_func_data.o
 .comment       0x000000000000022f       0x2b ./../../../psp_rel/lib/ctor.o
 .comment       0x000000000000025a       0x2b ./obj/plist_main.o
 .comment       0x0000000000000285       0x2b ./obj/plist_scan_music.o
 .comment       0x00000000000002b0       0x2b ./obj/plist_sort_music.o
 .comment       0x00000000000002db       0x2b ./obj/plist_sort_music_sub.o
 .comment       0x0000000000000306       0x2b ./obj/plist_other_list.o
 .comment       0x0000000000000331       0x2b ./obj/plist_operate_list.o
 .comment       0x000000000000035c       0x2b ./obj/plist_ui_deal.o
 .comment       0x0000000000000387       0x2b ./obj/plist_m3u_deal.o
 .comment       0x00000000000003b2       0x2b ./obj/plist_creat_albumart_file.o
 .comment       0x00000000000003dd       0x2b ./obj/plist_sort_method.o
 .comment       0x0000000000000408       0x2b ./obj/plist_scan_audible.o
 .comment       0x0000000000000433       0x2b ./obj/plist_sort_audible.o
 .comment       0x000000000000045e       0x2b ./obj/plist_scan_func.o
 .comment       0x0000000000000489       0x2b ./obj/plist_creat_userpl.o
 .comment       0x00000000000004b4       0x2b ./obj/plist_sys_deal.o
 .comment       0x00000000000004df       0x2b ./obj/plist_m3u_deal_sub.o
 .comment       0x000000000000050a       0x2b ./obj/plist_m3u_deal_sub1.o
 .comment       0x0000000000000535       0x2b ./obj/plist_creat_bmk.o
 .comment       0x0000000000000560       0x2b ./obj/plist_creat_userpl_sub.o
 .comment       0x000000000000058b       0x2b ./../../../psp_rel/lib/lib_enhanced/eh_module.o
 .comment       0x00000000000005b6       0x2b ./../../../psp_rel/lib/lib_enhanced/eh_id3_entry.o
 .comment       0x00000000000005e1       0x2b ./../../../psp_rel/lib/lib_enhanced/eh_id3_aac.o
 .comment       0x000000000000060c       0x2b ./../../../psp_rel/lib/lib_enhanced/eh_module_sub.o
 .comment       0x0000000000000637       0x2b ./../../../psp_rel/lib/lib_enhanced/eh_id3_mp3_v1.o
 .comment       0x0000000000000662       0x2b ./../../../psp_rel/lib/lib_enhanced/eh_id3_mp3_v2.o
 .comment       0x000000000000068d       0x2b ./../../../psp_rel/lib/lib_enhanced/eh_id3_wma.o
 .comment       0x00000000000006b8       0x2b ./../../../psp_rel/lib/lib_enhanced/eh_id3_ape.o
 .comment       0x00000000000006e3       0x2b ./../../../psp_rel/lib/lib_enhanced/eh_id3_flac.o
 .comment       0x000000000000070e       0x2b ./../../../psp_rel/lib/lib_enhanced/eh_id3_ogg.o
 .comment       0x0000000000000739       0x2b ./../../../psp_rel/lib/lib_enhanced/eh_id3_aa.o
 .comment       0x0000000000000764       0x2b ./../../../psp_rel/lib/lib_enhanced/eh_id3_aax.o
 .comment       0x000000000000078f       0x2b ./../../../psp_rel/lib/lib_enhanced/eh_id3_function_sub.o
 .comment       0x00000000000007ba       0x2b ./../../../psp_rel/lib/lib_enhanced/eh_id3_utf8_deal.o
 .comment       0x00000000000007e5       0x2b ./../../lib/ui_menulist.o
 .comment       0x0000000000000810       0x2b ./../../lib/ui_menulist2.o
 .comment       0x000000000000083b       0x2b ./../../lib/ui_menulist_simple.o
 .comment       0x0000000000000866       0x2b ./../../lib/ui_parameter.o
 .comment       0x0000000000000891       0x2b ./../../lib/ui_textread.o
 .comment       0x00000000000008bc       0x2b ./../../lib/setting_comval.o
 .comment       0x00000000000008e7       0x2b ./../../lib/app_manager_bank.o
 .comment       0x0000000000000912       0x2b ./../../lib/app_timer_bank.o
 .comment       0x000000000000093d       0x2b ./../../lib/message_bank_init.o
 .comment       0x0000000000000968       0x2b ./../../lib/message_bank_send.o
 .comment       0x0000000000000993       0x2b ./../../lib/message_bank_broadcast.o
 .comment       0x00000000000009be       0x2b ./../../lib/common_config.o
 .comment       0x00000000000009e9       0x2b ./../../lib/common_msgmap_data.o
 .comment       0x0000000000000a14       0x2b ./../../lib/common_msgmap.o
 .comment       0x0000000000000a3f       0x2b ./../../lib/common_confmenu.o
 .comment       0x0000000000000a6a       0x2b ./../../lib/common_history.o
 .comment       0x0000000000000a95       0x2b ./../../lib/common_string.o
 .comment       0x0000000000000ac0       0x2b ./../../lib/common_string2.o
 .comment       0x0000000000000aeb       0x2b ./../../lib/common_key.o
 .comment       0x0000000000000b16       0x2b ./../../lib/common_msg.o
 .comment       0x0000000000000b41       0x2b ./../../lib/common_sound.o
 .comment       0x0000000000000b6c       0x2b ./../../lib/common_phy_volume_deal.o
 .comment       0x0000000000000b97       0x2b ./../../lib/common_phy_volume_table.o
 .comment       0x0000000000000bc2       0x2b ./../../lib/ui_menulist_sub.o
 .comment       0x0000000000000bed       0x2b ./../../lib/ui_menulist_sub2.o
 .comment       0x0000000000000c18       0x2b ./../../lib/ui_textread_dec.o
 .comment       0x0000000000000c43       0x2b ./../../lib/ui_textread_sub.o
 .comment       0x0000000000000c6e       0x2b ./../../lib/ui_headbar.o
 .comment       0x0000000000000c99       0x2b ./../../lib/ui_keylock.o
 .comment       0x0000000000000cc4       0x2b ./../../lib/ui_shutoff.o
 .comment       0x0000000000000cef       0x2b ./../../lib/ui_screensave.o
 .comment       0x0000000000000d1a       0x2b ./../../lib/ui_screensave_sub.o
 .comment       0x0000000000000d45       0x2b ./../../lib/ui_animation.o
 .comment       0x0000000000000d70       0x2b ./../../lib/ui_volumebar.o
 .comment       0x0000000000000d9b       0x2b ./../../lib/ui_volumebar_sub.o
 .comment       0x0000000000000dc6       0x2b ./../../lib/ui_dialog.o
 .comment       0x0000000000000df1       0x2b ./../../lib/ui_usbconnect.o
 .comment       0x0000000000000e1c       0x2b ./../../lib/miscellaneous.o
 .comment       0x0000000000000e47       0x2b ./../../lib/app_sleep.o
 .comment       0x0000000000000e72       0x2b ./../../lib/sys_timer.o
 .comment       0x0000000000000e9d       0x2b ./../../lib/sys_counter.o
 .comment       0x0000000000000ec8       0x2b ./../../lib/common_charge.o
 .comment       0x0000000000000ef3       0x2b ./../../lib/ui_headbar_handle.o
 .comment       0x0000000000000f1e       0x2b ./../../lib/message_box.o
 .comment       0x0000000000000f49       0x2b ./../../lib/alarm_msg_dispatch.o
 .comment       0x0000000000000f74       0x2b ./../../lib/alarm_msg_dispatch2.o
 .comment       0x0000000000000f9f       0x2b ./../../lib/antenna_detect.o
 .comment       0x0000000000000fca       0x2b ./../../lib/common_setdae_init.o
 .comment       0x0000000000000ff5       0x2b ./../../lib/common_keytone_play.o

.debug_frame    0x0000000000000000     0x3b94
 .debug_frame   0x0000000000000000       0xe0 ./../../../psp_rel/lib/lib_enhanced/eh_id3_function.o
 .debug_frame   0x00000000000000e0       0xf4 ./obj/plist_sort_al.o
 .debug_frame   0x00000000000001d4       0xbc ./obj/plist_rcode.o
 .debug_frame   0x0000000000000290       0x74 ./../../lib/message_rcode.o
 .debug_frame   0x0000000000000304       0xc8 ./obj/plist_fsel.o
 .debug_frame   0x00000000000003cc       0x34 ./../../lib/app_timer_rcode.o
 .debug_frame   0x0000000000000400       0x58 ./../../../psp_rel/lib/ctor.o
 .debug_frame   0x0000000000000458      0x158 ./obj/plist_main.o
 .debug_frame   0x00000000000005b0      0x120 ./obj/plist_scan_music.o
 .debug_frame   0x00000000000006d0       0xd0 ./obj/plist_sort_music.o
 .debug_frame   0x00000000000007a0       0x90 ./obj/plist_sort_music_sub.o
 .debug_frame   0x0000000000000830       0xfc ./obj/plist_other_list.o
 .debug_frame   0x000000000000092c       0xbc ./obj/plist_operate_list.o
 .debug_frame   0x00000000000009e8       0xa0 ./obj/plist_ui_deal.o
 .debug_frame   0x0000000000000a88      0x108 ./obj/plist_m3u_deal.o
 .debug_frame   0x0000000000000b90       0x50 ./obj/plist_creat_albumart_file.o
 .debug_frame   0x0000000000000be0      0x158 ./obj/plist_sort_method.o
 .debug_frame   0x0000000000000d38       0xe0 ./obj/plist_scan_audible.o
 .debug_frame   0x0000000000000e18       0x80 ./obj/plist_sort_audible.o
 .debug_frame   0x0000000000000e98       0xe0 ./obj/plist_scan_func.o
 .debug_frame   0x0000000000000f78       0x6c ./obj/plist_creat_userpl.o
 .debug_frame   0x0000000000000fe4      0x134 ./obj/plist_sys_deal.o
 .debug_frame   0x0000000000001118       0x58 ./obj/plist_m3u_deal_sub.o
 .debug_frame   0x0000000000001170       0x38 ./obj/plist_m3u_deal_sub1.o
 .debug_frame   0x00000000000011a8       0x78 ./obj/plist_creat_bmk.o
 .debug_frame   0x0000000000001220       0xe8 ./obj/plist_creat_userpl_sub.o
 .debug_frame   0x0000000000001308      0x14c ./../../../psp_rel/lib/lib_enhanced/eh_module.o
 .debug_frame   0x0000000000001454       0xe4 ./../../../psp_rel/lib/lib_enhanced/eh_id3_entry.o
 .debug_frame   0x0000000000001538       0x34 ./../../../psp_rel/lib/lib_enhanced/eh_id3_aac.o
 .debug_frame   0x000000000000156c       0xbc ./../../../psp_rel/lib/lib_enhanced/eh_module_sub.o
 .debug_frame   0x0000000000001628       0x58 ./../../../psp_rel/lib/lib_enhanced/eh_id3_mp3_v1.o
 .debug_frame   0x0000000000001680       0xe0 ./../../../psp_rel/lib/lib_enhanced/eh_id3_mp3_v2.o
 .debug_frame   0x0000000000001760       0xd8 ./../../../psp_rel/lib/lib_enhanced/eh_id3_wma.o
 .debug_frame   0x0000000000001838       0xa0 ./../../../psp_rel/lib/lib_enhanced/eh_id3_ape.o
 .debug_frame   0x00000000000018d8       0xe0 ./../../../psp_rel/lib/lib_enhanced/eh_id3_flac.o
 .debug_frame   0x00000000000019b8       0xbc ./../../../psp_rel/lib/lib_enhanced/eh_id3_ogg.o
 .debug_frame   0x0000000000001a74       0xb4 ./../../../psp_rel/lib/lib_enhanced/eh_id3_aa.o
 .debug_frame   0x0000000000001b28       0xb4 ./../../../psp_rel/lib/lib_enhanced/eh_id3_aax.o
 .debug_frame   0x0000000000001bdc       0x2c ./../../../psp_rel/lib/lib_enhanced/eh_id3_function_sub.o
 .debug_frame   0x0000000000001c08       0x50 ./../../../psp_rel/lib/lib_enhanced/eh_id3_utf8_deal.o
 .debug_frame   0x0000000000001c58       0xf4 ./../../lib/ui_menulist.o
 .debug_frame   0x0000000000001d4c      0x198 ./../../lib/ui_menulist2.o
 .debug_frame   0x0000000000001ee4      0x13c ./../../lib/ui_menulist_simple.o
 .debug_frame   0x0000000000002020       0xd8 ./../../lib/ui_parameter.o
 .debug_frame   0x00000000000020f8       0x90 ./../../lib/ui_textread.o
 .debug_frame   0x0000000000002188       0x60 ./../../lib/setting_comval.o
 .debug_frame   0x00000000000021e8       0x58 ./../../lib/app_manager_bank.o
 .debug_frame   0x0000000000002240       0xa8 ./../../lib/app_timer_bank.o
 .debug_frame   0x00000000000022e8       0x34 ./../../lib/message_bank_init.o
 .debug_frame   0x000000000000231c       0x80 ./../../lib/message_bank_send.o
 .debug_frame   0x000000000000239c       0x58 ./../../lib/message_bank_broadcast.o
 .debug_frame   0x00000000000023f4       0x78 ./../../lib/common_config.o
 .debug_frame   0x000000000000246c       0x2c ./../../lib/common_msgmap.o
 .debug_frame   0x0000000000002498       0xec ./../../lib/common_confmenu.o
 .debug_frame   0x0000000000002584       0xe8 ./../../lib/common_history.o
 .debug_frame   0x000000000000266c       0x50 ./../../lib/common_string.o
 .debug_frame   0x00000000000026bc       0xbc ./../../lib/common_string2.o
 .debug_frame   0x0000000000002778      0x158 ./../../lib/common_key.o
 .debug_frame   0x00000000000028d0      0x130 ./../../lib/common_msg.o
 .debug_frame   0x0000000000002a00      0x148 ./../../lib/common_sound.o
 .debug_frame   0x0000000000002b48       0x28 ./../../lib/common_phy_volume_deal.o
 .debug_frame   0x0000000000002b70       0x6c ./../../lib/ui_menulist_sub.o
 .debug_frame   0x0000000000002bdc       0x74 ./../../lib/ui_menulist_sub2.o
 .debug_frame   0x0000000000002c50       0x74 ./../../lib/ui_textread_dec.o
 .debug_frame   0x0000000000002cc4       0x7c ./../../lib/ui_textread_sub.o
 .debug_frame   0x0000000000002d40       0xd4 ./../../lib/ui_headbar.o
 .debug_frame   0x0000000000002e14       0xe4 ./../../lib/ui_keylock.o
 .debug_frame   0x0000000000002ef8       0xb4 ./../../lib/ui_shutoff.o
 .debug_frame   0x0000000000002fac      0x178 ./../../lib/ui_screensave.o
 .debug_frame   0x0000000000003124       0xb4 ./../../lib/ui_screensave_sub.o
 .debug_frame   0x00000000000031d8       0xb4 ./../../lib/ui_animation.o
 .debug_frame   0x000000000000328c       0xd0 ./../../lib/ui_volumebar.o
 .debug_frame   0x000000000000335c       0x58 ./../../lib/ui_volumebar_sub.o
 .debug_frame   0x00000000000033b4       0xb4 ./../../lib/ui_dialog.o
 .debug_frame   0x0000000000003468       0xfc ./../../lib/ui_usbconnect.o
 .debug_frame   0x0000000000003564       0x90 ./../../lib/miscellaneous.o
 .debug_frame   0x00000000000035f4       0x34 ./../../lib/app_sleep.o
 .debug_frame   0x0000000000003628       0x90 ./../../lib/sys_timer.o
 .debug_frame   0x00000000000036b8       0x64 ./../../lib/sys_counter.o
 .debug_frame   0x000000000000371c       0x50 ./../../lib/common_charge.o
 .debug_frame   0x000000000000376c       0x30 ./../../lib/ui_headbar_handle.o
 .debug_frame   0x000000000000379c       0x88 ./../../lib/message_box.o
 .debug_frame   0x0000000000003824       0xc4 ./../../lib/alarm_msg_dispatch.o
 .debug_frame   0x00000000000038e8       0x48 ./../../lib/alarm_msg_dispatch2.o
 .debug_frame   0x0000000000003930       0x74 ./../../lib/antenna_detect.o
 .debug_frame   0x00000000000039a4       0xa8 ./../../lib/common_setdae_init.o
 .debug_frame   0x0000000000003a4c      0x148 ./../../lib/common_keytone_play.o

.debug_aranges  0x0000000000000000      0xbe0
 .debug_aranges
                0x0000000000000000       0x20 ./../../../psp_rel/lib/lib_enhanced/eh_id3_function.o
 .debug_aranges
                0x0000000000000020       0x20 ./obj/plist_sort_al.o
 .debug_aranges
                0x0000000000000040       0x20 ./../../../psp_rel/lib/api.a(audio_device_op_entry.o)
 .debug_aranges
                0x0000000000000060       0x20 ./../../../psp_rel/lib/api.a(key_op_entry.o)
 .debug_aranges
                0x0000000000000080       0x20 ./../../../psp_rel/lib/api.a(libc_op_entry.o)
 .debug_aranges
                0x00000000000000a0       0x20 ./../../../psp_rel/lib/api.a(sys_op_entry.o)
 .debug_aranges
                0x00000000000000c0       0x20 ./../../../psp_rel/lib/api.a(vfs_op_entry.o)
 .debug_aranges
                0x00000000000000e0       0x20 ./obj/plist_rcode.o
 .debug_aranges
                0x0000000000000100       0x20 ./../../lib/message_rcode.o
 .debug_aranges
                0x0000000000000120       0x20 ./obj/plist_fsel.o
 .debug_aranges
                0x0000000000000140       0x20 ./../../lib/app_timer_rcode.o
 .debug_aranges
                0x0000000000000160       0x20 ./../../../psp_rel/lib/ctor.o
 .debug_aranges
                0x0000000000000180       0x20 ./obj/plist_main.o
 .debug_aranges
                0x00000000000001a0       0x20 ./obj/plist_scan_music.o
 .debug_aranges
                0x00000000000001c0       0x20 ./obj/plist_sort_music.o
 .debug_aranges
                0x00000000000001e0       0x20 ./obj/plist_sort_music_sub.o
 .debug_aranges
                0x0000000000000200       0x20 ./obj/plist_other_list.o
 .debug_aranges
                0x0000000000000220       0x20 ./obj/plist_operate_list.o
 .debug_aranges
                0x0000000000000240       0x20 ./obj/plist_ui_deal.o
 .debug_aranges
                0x0000000000000260       0x20 ./obj/plist_m3u_deal.o
 .debug_aranges
                0x0000000000000280       0x20 ./obj/plist_creat_albumart_file.o
 .debug_aranges
                0x00000000000002a0       0x20 ./obj/plist_sort_method.o
 .debug_aranges
                0x00000000000002c0       0x20 ./obj/plist_scan_audible.o
 .debug_aranges
                0x00000000000002e0       0x20 ./obj/plist_sort_audible.o
 .debug_aranges
                0x0000000000000300       0x20 ./obj/plist_scan_func.o
 .debug_aranges
                0x0000000000000320       0x20 ./obj/plist_creat_userpl.o
 .debug_aranges
                0x0000000000000340       0x20 ./obj/plist_sys_deal.o
 .debug_aranges
                0x0000000000000360       0x20 ./obj/plist_m3u_deal_sub.o
 .debug_aranges
                0x0000000000000380       0x20 ./obj/plist_m3u_deal_sub1.o
 .debug_aranges
                0x00000000000003a0       0x20 ./obj/plist_creat_bmk.o
 .debug_aranges
                0x00000000000003c0       0x20 ./obj/plist_creat_userpl_sub.o
 .debug_aranges
                0x00000000000003e0       0x20 ./../../../psp_rel/lib/lib_enhanced/eh_module.o
 .debug_aranges
                0x0000000000000400       0x20 ./../../../psp_rel/lib/api.a(lcd_op_entry.o)
 .debug_aranges
                0x0000000000000420       0x20 ./../../../psp_rel/lib/api.a(ui_op_entry.o)
 .debug_aranges
                0x0000000000000440       0x20 ./../../../psp_rel/lib/api.a(base_op_entry.o)
 .debug_aranges
                0x0000000000000460       0x20 ./../../../psp_rel/lib/lib_enhanced/eh_id3_entry.o
 .debug_aranges
                0x0000000000000480       0x20 ./../../../psp_rel/lib/lib_enhanced/eh_id3_aac.o
 .debug_aranges
                0x00000000000004a0       0x20 ./../../../psp_rel/lib/lib_enhanced/eh_module_sub.o
 .debug_aranges
                0x00000000000004c0       0x20 ./../../../psp_rel/lib/lib_enhanced/eh_id3_mp3_v1.o
 .debug_aranges
                0x00000000000004e0       0x20 ./../../../psp_rel/lib/lib_enhanced/eh_id3_mp3_v2.o
 .debug_aranges
                0x0000000000000500       0x20 ./../../../psp_rel/lib/lib_enhanced/eh_id3_wma.o
 .debug_aranges
                0x0000000000000520       0x20 ./../../../psp_rel/lib/lib_enhanced/eh_id3_ape.o
 .debug_aranges
                0x0000000000000540       0x20 ./../../../psp_rel/lib/lib_enhanced/eh_id3_flac.o
 .debug_aranges
                0x0000000000000560       0x20 ./../../../psp_rel/lib/lib_enhanced/eh_id3_ogg.o
 .debug_aranges
                0x0000000000000580       0x20 ./../../../psp_rel/lib/lib_enhanced/eh_id3_aa.o
 .debug_aranges
                0x00000000000005a0       0x20 ./../../../psp_rel/lib/lib_enhanced/eh_id3_aax.o
 .debug_aranges
                0x00000000000005c0       0x20 ./../../../psp_rel/lib/lib_enhanced/eh_id3_function_sub.o
 .debug_aranges
                0x00000000000005e0       0x20 ./../../../psp_rel/lib/lib_enhanced/eh_id3_utf8_deal.o
 .debug_aranges
                0x0000000000000600       0x20 ./../../lib/ui_menulist.o
 .debug_aranges
                0x0000000000000620       0x20 ./../../lib/ui_menulist2.o
 .debug_aranges
                0x0000000000000640       0x20 ./../../lib/ui_menulist_simple.o
 .debug_aranges
                0x0000000000000660       0x20 ./../../lib/ui_parameter.o
 .debug_aranges
                0x0000000000000680       0x20 ./../../lib/ui_textread.o
 .debug_aranges
                0x00000000000006a0       0x20 ./../../lib/setting_comval.o
 .debug_aranges
                0x00000000000006c0       0x20 ./../../lib/app_manager_bank.o
 .debug_aranges
                0x00000000000006e0       0x20 ./../../lib/app_timer_bank.o
 .debug_aranges
                0x0000000000000700       0x20 ./../../lib/message_bank_init.o
 .debug_aranges
                0x0000000000000720       0x20 ./../../lib/message_bank_send.o
 .debug_aranges
                0x0000000000000740       0x20 ./../../lib/message_bank_broadcast.o
 .debug_aranges
                0x0000000000000760       0x20 ./../../lib/common_config.o
 .debug_aranges
                0x0000000000000780       0x20 ./../../lib/common_msgmap.o
 .debug_aranges
                0x00000000000007a0       0x20 ./../../lib/common_confmenu.o
 .debug_aranges
                0x00000000000007c0       0x20 ./../../lib/common_history.o
 .debug_aranges
                0x00000000000007e0       0x20 ./../../lib/common_string.o
 .debug_aranges
                0x0000000000000800       0x20 ./../../lib/common_string2.o
 .debug_aranges
                0x0000000000000820       0x20 ./../../lib/common_key.o
 .debug_aranges
                0x0000000000000840       0x20 ./../../lib/common_msg.o
 .debug_aranges
                0x0000000000000860       0x20 ./../../lib/common_sound.o
 .debug_aranges
                0x0000000000000880       0x20 ./../../lib/common_phy_volume_deal.o
 .debug_aranges
                0x00000000000008a0       0x20 ./../../lib/ui_menulist_sub.o
 .debug_aranges
                0x00000000000008c0       0x20 ./../../lib/ui_menulist_sub2.o
 .debug_aranges
                0x00000000000008e0       0x20 ./../../lib/ui_textread_dec.o
 .debug_aranges
                0x0000000000000900       0x20 ./../../lib/ui_textread_sub.o
 .debug_aranges
                0x0000000000000920       0x20 ./../../lib/ui_headbar.o
 .debug_aranges
                0x0000000000000940       0x20 ./../../lib/ui_keylock.o
 .debug_aranges
                0x0000000000000960       0x20 ./../../lib/ui_shutoff.o
 .debug_aranges
                0x0000000000000980       0x20 ./../../lib/ui_screensave.o
 .debug_aranges
                0x00000000000009a0       0x20 ./../../lib/ui_screensave_sub.o
 .debug_aranges
                0x00000000000009c0       0x20 ./../../lib/ui_animation.o
 .debug_aranges
                0x00000000000009e0       0x20 ./../../lib/ui_volumebar.o
 .debug_aranges
                0x0000000000000a00       0x20 ./../../lib/ui_volumebar_sub.o
 .debug_aranges
                0x0000000000000a20       0x20 ./../../lib/ui_dialog.o
 .debug_aranges
                0x0000000000000a40       0x20 ./../../lib/ui_usbconnect.o
 .debug_aranges
                0x0000000000000a60       0x20 ./../../lib/miscellaneous.o
 .debug_aranges
                0x0000000000000a80       0x20 ./../../lib/app_sleep.o
 .debug_aranges
                0x0000000000000aa0       0x20 ./../../lib/sys_timer.o
 .debug_aranges
                0x0000000000000ac0       0x20 ./../../lib/sys_counter.o
 .debug_aranges
                0x0000000000000ae0       0x20 ./../../lib/common_charge.o
 .debug_aranges
                0x0000000000000b00       0x20 ./../../lib/ui_headbar_handle.o
 .debug_aranges
                0x0000000000000b20       0x20 ./../../lib/message_box.o
 .debug_aranges
                0x0000000000000b40       0x20 ./../../lib/alarm_msg_dispatch.o
 .debug_aranges
                0x0000000000000b60       0x20 ./../../lib/alarm_msg_dispatch2.o
 .debug_aranges
                0x0000000000000b80       0x20 ./../../lib/antenna_detect.o
 .debug_aranges
                0x0000000000000ba0       0x20 ./../../lib/common_setdae_init.o
 .debug_aranges
                0x0000000000000bc0       0x20 ./../../lib/common_keytone_play.o

.debug_ranges   0x0000000000000000       0x20
 .debug_ranges  0x0000000000000000       0x20 ./../../lib/app_timer_bank.o
