Archive member included because of file (symbol)

./../../../psp_rel/lib/api.a(libc_op_entry.o)
                              ./obj/music_playing_show_lyric.o (libc_op_entry)
./../../../psp_rel/lib/api.a(ui_op_entry.o)
                              ./obj/music_playing_show_lyric.o (ui_op_entry)
./../../../psp_rel/lib/api.a(audio_device_op_entry.o)
                              (audio_device_op_entry)
./../../../psp_rel/lib/api.a(key_op_entry.o)
                              ./obj/music_listmenu_albumlist.o (key_op_entry)
./../../../psp_rel/lib/api.a(lcd_op_entry.o)
                              ./obj/music_listmenu_albumlist.o (lcd_op_entry)
./../../../psp_rel/lib/api.a(mmm_id_cmd.o)
                              ./obj/music_listmenu_albumlist.o (mmm_id_cmd)
./../../../psp_rel/lib/api.a(sys_op_entry.o)
                              ./obj/music_control.o (sys_op_entry)
./../../../psp_rel/lib/api.a(vfs_op_entry.o)
                              ./obj/music_playing_paint.o (vfs_op_entry)
./../../../psp_rel/lib/api.a(base_op_entry.o)
                              (base_op_entry)

Memory Configuration

Name             Origin             Length             Attributes
*default*        0x0000000000000000 0xffffffffffffffff

Linker script and memory map

LOAD ./../../../psp_rel/include/link_base.xn
                0x0000000000000000                DRV_GROUP_STG_BASE = 0x0
                0x0000000000000001                DRV_GROUP_STG_CARD = 0x1
                0x0000000000000002                DRV_GROUP_STG_UHOST = 0x2
                0x0000000000000003                DRV_GROUP_FAT32 = 0x3
                0x0000000000000004                DRV_GROUP_EXFAT = 0x4
                0x0000000000000005                DRV_GROUP_UD = 0x5
                0x0000000000000006                DRV_GROUP_UI = 0x6
                0x0000000000000007                DRV_GROUP_LCD = 0x7
                0x0000000000000008                DRV_GROUP_FM = 0x8
                0x0000000000000009                DRV_GROUP_KEY = 0x9
                0x000000000000000a                DRV_GROUP_CCD = 0xa
                0x000000000000000b                DRV_GROUP_I2C = 0xb
                0x000000000000000c                DRV_GROUP_AUDIO_DEVICE = 0xc
                0x000000000000000d                DRV_GROUP_TTS = 0xd
                0x000000000000000e                DRV_GROUP_BT = 0xe
                0x000000000000000f                DRV_GROUP_SYS = 0xf
                0x000000000003ffff                SRAM_SIZE_MASK = 0x3ffff
                0x000000009fc00000                RDATA_ADDR_BASE = 0x9fc00000
                0x00000000bfc00000                RCODE_ADDR_BASE = 0xbfc00000
                0x0000000000000001                KERNEL_BANK_A = 0x1
                0x0000000000000002                KERNEL_BANK_B = 0x2
                0x0000000000000003                KERNEL_BANK_C = 0x3
                0x0000000000040000                BANK_SPACE = 0x40000
                0x0000000000000000                FRONT_AP = 0x0
                0x0000000000000001                BACK_AP = 0x1
                0x0000000000000002                PROCESS_MANAGER_AP = 0x2
                0x0000000000000000                FRONT_CODEC = 0x0
                0x0000000000000001                BACK_CODEC = 0x1
                0x0000000000000040                AP_BANK_FRONT_CONTROL_1 = 0x40
                0x0000000000000048                AP_BANK_FRONT_UI_1 = 0x48
                0x0000000000000050                AP_BANK_FRONT_BASAL = 0x50
                0x0000000000000058                AP_BANK_FRONT_CODEC = 0x58
                0x0000000000000060                AP_BANK_BACK_CONTROL_1 = 0x60
                0x0000000000000068                AP_BANK_BACK_BASAL = 0x68
                0x0000000000000070                AP_BANK_BACK_CODEC = 0x70
                0x0000000000000078                AP_BANK_FRONT_ENHANCED_1 = 0x78
                0x0000000000000071                AP_BANK_FRONT_ENHANCED_2 = 0x71
                0x000000000000007a                AP_BANK_BACK_ENHANCED_1 = 0x7a
                0x000000000000007b                AP_BANK_BACK_ENHANCED_2 = 0x7b
                0x0000000000000072                AP_BANK_BTENGINE_CONTROL_1 = 0x72
                0x0000000000000073                AP_BANK_BTENGINE_LIB_1 = 0x73
                0x0000000000000074                AP_BANK_BTENGINE_LIB_2 = 0x74
                0x0000000000000075                AP_BANK_BTENGINE_EXTEND_1 = 0x75
                0x0000000000000076                AP_BANK_BTENGINE_EXTEND_2 = 0x76
                0x0000000000000077                AP_BANK_BTENGINE_EXTEND_3 = 0x77
                0x000000000000007c                AP_BANK_BTENGINE_EXTEND_4 = 0x7c
                0x0000000000000079                AP_BANK_BTENGINE_EXTEND_5 = 0x79
                0x000000000000007f                AP_BANK_MANAGER = 0x7f
                0x0000000000000041                AP_BANK_AUTOTEST = 0x41
                0x0000000000000000                SROM_BROM_ADDR = 0x0
                0x0000000000002600                SROM_BROM_SIZE = 0x2600
                0x0000000000002600                SROM_SPINOR_ADDR = (SROM_BROM_ADDR + SROM_BROM_SIZE)
                0x0000000000000c00                SROM_SPINOR_SIZE = 0xc00
                0x0000000000003200                SROM_TWI_ADDR = (SROM_SPINOR_ADDR + SROM_SPINOR_SIZE)
                0x0000000000000700                SROM_TWI_SIZE = 0x700
                0x0000000000003900                SROM_STUB_ADDR = (SROM_TWI_ADDR + SROM_TWI_SIZE)
                0x0000000000000700                SROM_STUB_SIZE = 0x700
                0x0000000000000e00                SROM_SPINOR_SIZE_MDY = 0xe00
                0x0000000000003400                SROM_TWI_ADDR_MDY = (SROM_SPINOR_ADDR + SROM_SPINOR_SIZE_MDY)
                0x0000000000000700                SROM_TWI_SIZE_MDY = 0x700
                0x0000000000003b00                SROM_STUB_ADDR_MDY = (SROM_TWI_ADDR_MDY + SROM_TWI_SIZE_MDY)
                0x0000000000000500                SROM_STUB_SIZE_MDY = 0x500
                0x0000000000004000                SROM_KERNEL_ADDR = (SROM_STUB_ADDR + SROM_STUB_SIZE)
                0x0000000000004000                SROM_KERNEL_SIZE = 0x4000
                0x000000000000c000                SROM_FS_ADDR = 0xc000
                0x0000000000001c00                SROM_FS_SIZE = 0x1c00
                0x000000000000dc00                SROM_SPINOR1_ADDR = (SROM_FS_ADDR + SROM_FS_SIZE)
                0x0000000000000400                SROM_SPINOR1_SIZE = 0x400
                0x0000000000008000                SRAM_OS_RCODE_ADDR = 0x8000
                0x0000000000000c00                SRAM_OS_RCODE_SIZE = 0xc00
                0x0000000000008c00                SRAM_SPINOR_RCODE_ADDR = 0x8c00
                0x0000000000000400                SRAM_SPINOR_RCODE_SIZE = 0x400
                0x0000000000009000                SRAM_BANK_A_ADDR = 0x9000
                0x0000000000000400                SRAM_BANK_A_SIZE = 0x400
                0x0000000000009400                SRAM_BANK_B_ADDR = 0x9400
                0x0000000000000800                SRAM_BANK_B_SIZE = 0x800
                0x0000000000009c00                SRAM_UI_RCODE1_ADDR = 0x9c00
                0x0000000000000300                SRAM_UI_RCODE1_SIZE = 0x300
                0x0000000000009f00                SRAM_AUDIO_GLOBAL_DATA_ADDR = 0x9f00
                0x0000000000000060                SRAM_AUDIO_GLOBAL_DATA_SIZE = 0x60
                0x0000000000009f60                SRAM_UHOST_GLOBAL_DATA_ADDR = 0x9f60
                0x0000000000000010                SRAM_UHOST_GLOBAL_DATA_SIZE = 0x10
                0x0000000000009f70                SRAM_CARD_GLOBAL_DATA_ADDR = 0x9f70
                0x0000000000000010                SRAM_CARD_GLOBAL_DATA_SIZE = 0x10
                0x0000000000009f80                SRAM_SYS_SHARE_DATA_ADDR = 0x9f80
                0x0000000000000040                SRAM_SYS_SHARE_DATA_SIZE = 0x40
                0x0000000000009fc0                SRAM_RAM6_CCD_GLOBAL_DATA_ADDR = 0x9fc0
                0x0000000000000020                SRAM_RAM6_CCD_GLOBAL_DATA_SIZE = 0x20
                0x0000000000009fe0                SRAM_RAM6_RESEVER_ADDR = 0x9fe0
                0x0000000000000020                SRAM_RAM6_RESEVER_SIZE = 0x20
                0x000000000000a000                SRAM_LCD_RCODE_ADDR = 0xa000
                0x0000000000000800                SRAM_LCD_RCODE_SIZE = 0x800
                0x000000000000a800                SRAM_UI_RCODE2_ADDR = 0xa800
                0x0000000000001000                SRAM_UI_RCODE2_SIZE = 0x1000
                0x000000000000b800                SRAM_LCD_BUFFER_ADDR = 0xb800
                0x0000000000000400                SRAM_LCD_BUFFER_SIZE = 0x400
                0x000000000000bc00                SRAM_UI_DATA_ADDR = 0xbc00
                0x0000000000000400                SRAM_UI_DATA_SIZE = 0x400
                0x0000000000010000                SRAM_KEY_MESSAGE_RCODE_ADDR = 0x10000
                0x0000000000000a00                SRAM_KEY_MESSAGE_RCODE_SIZE = 0xa00
                0x0000000000010a00                SRAM_RAM0_RESEVER1_ADDR = 0x10a00
                0x0000000000000200                SRAM_RAM0_RESEVER1_SIZE = 0x200
                0x0000000000010c00                SRAM_AP_FRONT_BASAL_RCODE_ADDR = 0x10c00
                0x0000000000000100                SRAM_AP_FRONT_BASAL_RCODE_SIZE = 0x100
                0x0000000000010d00                SRAM_AP_BANK_BACK_CONTROL_ADDR = 0x10d00
                0x0000000000000800                SRAM_AP_BANK_BACK_CONTROL_SIZE = 0x800
                0x0000000000011500                SRAM_AP_BACK_RCODE_ADDR = 0x11500
                0x0000000000000800                SRAM_AP_BACK_RCODE_SIZE = 0x800
                0x0000000000000000                SRAM_AP_BANK_FRONT_CODEC_ADDR = 0x0
                0x0000000000000000                SRAM_AP_BANK_FRONT_CODEC_SIZE = 0x0
                0x0000000000011d00                SRAM_RAM0_RESEVER2_ADDR = 0x11d00
                0x0000000000000800                SRAM_RAM0_RESEVER2_SIZE = 0x800
                0x0000000000012500                SRAM_AP_BANK_FRONT_BASAL_ADDR = 0x12500
                0x0000000000000800                SRAM_AP_BANK_FRONT_BASAL_SIZE = 0x800
                0x0000000000012500                SRAM_AP_BANK_FRONT_ENHANCED_2_ADDR = SRAM_AP_BANK_FRONT_BASAL_ADDR
                0x0000000000000800                SRAM_AP_BANK_FRONT_ENHANCED_2_SIZE = SRAM_AP_BANK_FRONT_BASAL_SIZE
                0x0000000000012d00                SRAM_AP_BANK_BACK_BASAL_ADDR = 0x12d00
                0x0000000000000800                SRAM_AP_BANK_BACK_BASAL_SIZE = 0x800
                0x0000000000012d00                SRAM_AP_BANK_BACK_ENHANCED_1_ADDR = SRAM_AP_BANK_BACK_BASAL_ADDR
                0x0000000000000800                SRAM_AP_BANK_BACK_ENHANCED_1_SIZE = SRAM_AP_BANK_BACK_BASAL_SIZE
                0x0000000000013500                SRAM_AP_BACK_BASAL_RCODE_ADDR = 0x13500
                0x0000000000000800                SRAM_AP_BACK_BASAL_RCODE_SIZE = 0x800
                0x0000000000013d00                SRAM_KERNEL_BSS_ADDR = 0x13d00
                0x00000000000000e0                SRAM_KERNEL_BSS_SIZE = 0xe0
                0x0000000000013de0                SRAM_AP_MANAGER_ADDR = 0x13de0
                0x0000000000000200                SRAM_AP_MANAGER_SIZE = 0x200
                0x0000000000013fc0                SRAM_IRQ_DSP_PRINT_TEMP_ADDR = 0x13fc0
                0x0000000000000020                SRAM_IRQ_DSP_PRINT_TEMP_SIZE = 0x20
                0x0000000000013fe0                SRAM_IRQ_PRINT_BUFFER_ADDR = 0x13fe0
                0x0000000000000110                SRAM_IRQ_PRINT_BUFFER_SIZE = 0x110
                0x00000000000140f0                SRAM_DSP_PRINT_BUFFER_ADDR = 0x140f0
                0x0000000000000110                SRAM_DSP_PRINT_BUFFER_SIZE = 0x110
                0x0000000000014200                SRAM_LCD_DATA_ADDR = 0x14200
                0x0000000000000100                SRAM_LCD_DATA_SIZE = 0x100
                0x0000000000014300                SRAM_KEY_MESSAGE_DATA_ADDR = 0x14300
                0x0000000000000100                SRAM_KEY_MESSAGE_DATA_SIZE = 0x100
                0x0000000000014400                SRAM_AP_BANK_FRONT_UI_ADDR = 0x14400
                0x0000000000000800                SRAM_AP_BANK_FRONT_UI_SIZE = 0x800
                0x0000000000014c00                SRAM_AP_BANK_FRONT_CONTROL_ADDR = 0x14c00
                0x0000000000000800                SRAM_AP_BANK_FRONT_CONTROL_SIZE = 0x800
                0x0000000000015400                SRAM_AP_FRONT_DATA_ADDR = 0x15400
                0x0000000000000800                SRAM_AP_FRONT_DATA_SIZE = 0x800
                0x0000000000015c00                SRAM_AP_BACK_DATA_ADDR = 0x15c00
                0x0000000000000600                SRAM_AP_BACK_DATA_SIZE = 0x600
                0x0000000000016200                SRAM_AP_BANK_MANAGER_ADDR = 0x16200
                0x0000000000000200                SRAM_AP_BANK_MANAGER_SIZE = 0x200
                0x0000000000016400                SRAM_AP_FRONT_RCODE_ADDR = 0x16400
                0x0000000000000800                SRAM_AP_FRONT_RCODE_SIZE = 0x800
                0x0000000000016c00                SRAM_FS_RCODE_ADDR = 0x16c00
                0x0000000000000800                SRAM_FS_RCODE_SIZE = 0x800
                0x0000000000017400                SRAM_UI_RCODE3_ADDR = 0x17400
                0x0000000000000c00                SRAM_UI_RCODE3_SIZE = 0xc00
                0x0000000000017400                SRAM_CARD_UD_RCODE_ADDR = 0x17400
                0x0000000000000c00                SRAM_CARD_UD_RCODE_SIZE = 0xc00
                0x0000000000017400                SRAM_UHOST_UD_RCODE_ADDR = SRAM_CARD_UD_RCODE_ADDR
                0x0000000000000c00                SRAM_UHOST_UD_RCODE_SIZE = SRAM_CARD_UD_RCODE_SIZE
                0x0000000000018000                SRAM_FS_DATA_ADDR = 0x18000
                0x0000000000000300                SRAM_FS_DATA_SIZE = 0x300
                0x0000000000018300                SRAM_FS_BUF_ADDR = 0x18300
                0x0000000000000a00                SRAM_FS_BUF_SIZE = 0xa00
                0x0000000000018d00                SRAM_CARD_UD_CACHE_ADDR = 0x18d00
                0x0000000000000800                SRAM_CARD_UD_CACHE_SIZE = 0x800
                0x0000000000018d00                SRAM_UHOST_UD_CACHE_ADDR = SRAM_CARD_UD_CACHE_ADDR
                0x0000000000000800                SRAM_UHOST_UD_CACHE_SIZE = SRAM_CARD_UD_CACHE_SIZE
                0x0000000000019500                SRAM_CARD_DATA_ADDR = 0x19500
                0x0000000000000080                SRAM_CARD_DATA_SIZE = 0x80
                0x0000000000019500                SRAM_UHOST_DATA_ADDR = SRAM_CARD_DATA_ADDR
                0x0000000000000080                SRAM_UHOST_DATA_SIZE = SRAM_CARD_DATA_SIZE
                0x0000000000019580                SRAM_KERNEL_XSYS_ADDR = 0x19580
                0x0000000000000800                SRAM_KERNEL_XSYS_SIZE = 0x800
                0x0000000000019d80                SRAM_BANK_C_ADDR = 0x19d80
                0x0000000000000400                SRAM_BANK_C_SIZE = 0x400
                0x000000000001a180                SRAM_APPLIB_GLOBAL_DATA_ADDR = 0x1a180
                0x0000000000000100                SRAM_APPLIB_GLOBAL_DATA_SIZE = 0x100
                0x000000000001a280                SRAM_APPLIB_DATA_ADDR = 0x1a280
                0x0000000000000100                SRAM_APPLIB_DATA_SIZE = 0x100
                0x000000000001a380                SRAM_RAM1_RESEVER1_ADDR = 0x1a380
                0x0000000000000080                SRAM_RAM1_RESEVER1_SIZE = 0x80
                0x000000000001a400                SRAM_OS_DATA_ADDR = 0x1a400
                0x0000000000000880                SRAM_OS_DATA_SIZE = 0x880
                0x000000000001ac80                SRAM_OS_HEAP_ADDR = 0x1ac80
                0x0000000000000580                SRAM_OS_HEAP_SIZE = 0x580
                0x000000000001b200                SRAM_AP_BANK_FRONT_ENHANCED_1_ADDR = 0x1b200
                0x0000000000000800                SRAM_AP_BANK_FRONT_ENHANCED_1_SIZE = 0x800
                0x000000000001b200                SRAM_FM_DRV_RCODE_ADDR = SRAM_AP_BANK_FRONT_ENHANCED_1_ADDR
                0x0000000000000800                SRAM_FM_DRV_RCODE_SIZE = SRAM_AP_BANK_FRONT_ENHANCED_1_SIZE
                0x000000000001ba00                SRAM_OS_SD_SWAP_BUF_ADDR = 0x1ba00
                0x0000000000000200                SRAM_OS_SD_SWAP_BUF_SIZE = 0x200
                0x000000000001bc00                SRAM_OS_TASK_STACK_ADDR = 0x1bc00
                0x0000000000001a00                SRAM_OS_TASK_STACK_SIZE = 0x1a00
                0x000000000001d600                SRAM_OS_SYS_STACK_ADDR = 0x1d600
                0x0000000000000400                SRAM_OS_SYS_STACK_SIZE = 0x400
                0x000000000001da00                SRAM_RAM1_RESEVER2_ADDR = 0x1da00
                0x0000000000000600                SRAM_RAM1_RESEVER1_SIZE = 0x600
                0x0000000000027000                SRAM_AP_BACK_CODEC_RCODE_ADDR = 0x27000
                0x0000000000001000                SRAM_AP_BACK_CODEC_RCODE_SIZE = 0x1000
                0x0000000000028000                SRAM_AP_BANK_BACK_CODEC_ADDR = 0x28000
                0x0000000000001000                SRAM_AP_BANK_BACK_CODEC_SIZE = 0x1000
                0x0000000000028000                SRAM_AP_BANK_BACK_ENHANCED_2_ADDR = 0x28000
                0x0000000000000800                SRAM_AP_BANK_BACK_ENHANCED_2_SIZE = 0x800
                0x0000000000030000                SRAM_AP_USB_DEVICE_RCODE_ADDR = 0x30000
                0x0000000000004000                SRAM_AP_USB_DEVICE_RCODE_SIZE = 0x4000
                0x0000000000038000                SRAM_TWI_ADDR_MDY = 0x38000
                0x0000000000000700                SRAM_TWI_SIZE_MDY = SROM_TWI_SIZE_MDY
                0x0000000000040000                SRAM_INVALID_RCODE_ADDR = 0x40000
                0x0000000000000000                AP_INDEX = FRONT_AP
                0x0000000000016400                SRAM_TEXT_ADDR = SRAM_AP_FRONT_RCODE_ADDR
                0x00000000bfc16400                RCODE_TEXT_ADDR = (RCODE_ADDR_BASE + SRAM_TEXT_ADDR)
                0x0000000000000800                RCODE_SIZE = SRAM_AP_FRONT_RCODE_SIZE
                0x0000000000015400                SRAM_DATA_ADDR = SRAM_AP_FRONT_DATA_ADDR
                0x000000009fc15400                RDATA_DATA_ADDR = (RDATA_ADDR_BASE + SRAM_DATA_ADDR)
                0x000000009fc1a280                APPLIB_DATA_ADDR = (RDATA_ADDR_BASE + SRAM_APPLIB_DATA_ADDR)
                0x000000009fc1a180                APPLIB_GLOBAL_DATA_ADDR = (RDATA_ADDR_BASE + SRAM_APPLIB_GLOBAL_DATA_ADDR)
                0x0000000040014c00                BANK_CONTROL_1_ADDR_BASE = ((AP_BANK_FRONT_CONTROL_1 << 0x18) + SRAM_AP_BANK_FRONT_CONTROL_ADDR)
                0x0000000048014400                BANK_UI_1_ADDR_BASE = ((AP_BANK_FRONT_UI_1 << 0x18) + SRAM_AP_BANK_FRONT_UI_ADDR)
                0x000000007801b200                BANK_ENHANCED_1_ADDR_BASE = ((AP_BANK_FRONT_ENHANCED_1 << 0x18) + SRAM_AP_BANK_FRONT_ENHANCED_1_ADDR)
                0x000000007101b200                BANK_ENHANCED_2_ADDR_BASE = ((AP_BANK_FRONT_ENHANCED_2 << 0x18) + SRAM_AP_BANK_FRONT_ENHANCED_1_ADDR)
                0x0000000000000800                BANK_CONTROL_SIZE = SRAM_AP_BANK_FRONT_CONTROL_SIZE
                0x0000000000000800                BANK_UI_SIZE = SRAM_AP_BANK_FRONT_UI_SIZE
                0x0000000000000800                BANK_ENHANCED1_SIZE = SRAM_AP_BANK_FRONT_ENHANCED_1_SIZE
                0x0000000000000800                BANK_ENHANCED2_SIZE = SRAM_AP_BANK_FRONT_ENHANCED_2_SIZE
                0x0000000000040000                AP_BANK_SPACE = BANK_SPACE
                0x000000009fc1a180                . = APPLIB_GLOBAL_DATA_ADDR

APP_GLOBE_DATA  0x000000009fc1a180      0x100
 applib_globe_data.o(.bss)
 .bss           0x000000009fc1a180       0x6c ./../../lib/applib_globe_data.o
                0x000000009fc1a180                g_sys_counter
                0x000000009fc1a194                g_app_info_vector
                0x000000009fc1a1e8                g_sys_shutdown_time
                0x000000009fc1a1dc                g_keytone_infor
                0x000000009fc1a190                config_fp
                0x000000009fc1a1b8                g_app_info_state
                0x000000009fc1a1e5                g_sys_time_second
                0x000000009fc1a1d0                g_app_last_state
                0x000000009fc1a280                . = 0x100
 *fill*         0x000000009fc1a1ec       0x94 00
                0x000000009fc1a280                . = APPLIB_DATA_ADDR

APPLIB_DATA     0x000000009fc1a280       0x18
 applib_app_data.o(.bss)
 .bss           0x000000009fc1a280       0x18 ./../../lib/applib_app_data.o
                0x000000009fc1a28c                g_this_app_msg_dispatch
                0x000000009fc1a290                g_app_timer_vector
                0x000000009fc1a280                g_app_timer_count
                0x000000009fc1a284                g_this_app_info
                0x000000009fc1a288                thread_mutex
                0x000000009fc1a294                g_this_app_timer_tag
                0x000000000000b800                . = SRAM_LCD_BUFFER_ADDR

LCD_BUFFER_DATA
                0x000000000000b800      0x400
 music_playing_show_lyric.o(.lcdbuffer)
 .lcdbuffer     0x000000000000b800      0x28c ./obj/music_playing_show_lyric.o
                0x000000000000b994                g_lyric_decode
                0x000000000000b800                lrc_buf
                0x000000000000b8cc                display_buf
                0x000000000000b9c0                lrc_buf_temp
                0x000000000000bc00                . = 0x400
 *fill*         0x000000000000ba8c      0x174 00

.text           0x00000000bfc16400      0x6f0
 api.a(.text)
 .text          0x00000000bfc16400        0x4 ./../../../psp_rel/lib/api.a(libc_op_entry.o)
                0x00000000bfc16401                libc_op_entry
 .text          0x00000000bfc16404        0x4 ./../../../psp_rel/lib/api.a(ui_op_entry.o)
                0x00000000bfc16405                ui_op_entry
 music_control.o(.text .rodata)
 .text          0x00000000bfc16408      0x55c ./obj/music_control.o
                0x00000000bfc164dd                music_get_playinfo
                0x00000000bfc16869                id3_scroll_deal
                0x00000000bfc16535                music_get_playmode
                0x00000000bfc16459                music_get_filepath
                0x00000000bfc164b1                music_get_status
                0x00000000bfc16589                music_play
                0x00000000bfc165b1                music_set_filepath
                0x00000000bfc16485                music_get_fileinfo
                0x00000000bfc16561                music_switch
                0x00000000bfc1674d                play_flag_update
                0x00000000bfc1692d                _scene_play_sysmsg
                0x00000000bfc16615                music_play_next
                0x00000000bfc1684d                play_scroll_update
                0x00000000bfc166b1                music_play_prev
                0x00000000bfc16509                music_get_bkinfo
                0x00000000bfc16409                music_send_msg
                0x00000000bfc167ed                play_scroll_deal
 app_timer_rcode.o(.text)
 .text          0x00000000bfc16964       0xbc ./../../lib/app_timer_rcode.o
                0x00000000bfc16965                handle_timers
 message_rcode.o(.text)
 .text          0x00000000bfc16a20       0xb4 ./../../lib/message_rcode.o
                0x00000000bfc16a21                get_gui_msg
                0x00000000bfc16a8d                get_app_msg
                0x00000000bfc16a59                get_sys_msg
 .text          0x00000000bfc16ad4        0x4 ./../../../psp_rel/lib/api.a(audio_device_op_entry.o)
                0x00000000bfc16ad5                audio_device_op_entry
 .text          0x00000000bfc16ad8        0x4 ./../../../psp_rel/lib/api.a(key_op_entry.o)
                0x00000000bfc16ad9                key_op_entry
 .text          0x00000000bfc16adc        0x4 ./../../../psp_rel/lib/api.a(lcd_op_entry.o)
                0x00000000bfc16add                lcd_op_entry
 .text          0x00000000bfc16ae0        0x4 ./../../../psp_rel/lib/api.a(mmm_id_cmd.o)
                0x00000000bfc16ae1                mmm_id_cmd
 .text          0x00000000bfc16ae4        0x4 ./../../../psp_rel/lib/api.a(sys_op_entry.o)
                0x00000000bfc16ae5                sys_op_entry
 .text          0x00000000bfc16ae8        0x4 ./../../../psp_rel/lib/api.a(vfs_op_entry.o)
                0x00000000bfc16ae9                vfs_op_entry
 .text          0x00000000bfc16aec        0x4 ./../../../psp_rel/lib/api.a(base_op_entry.o)
                0x00000000bfc16aed                base_op_entry

.data           0x000000009fc15400       0x14 load address 0x00000000bfc16af0
 music_main.o(.data)
 .data          0x000000009fc15400       0x14 ./obj/music_main.o
                0x000000009fc15404                g_music_mount_id
                0x000000009fc15410                prio
                0x000000009fc1540c                ptos
                0x000000009fc15401                scroll_frush_id
                0x000000009fc15400                time_frush_id
                0x000000009fc15408                g_temp_buffer_p
 eh_rdata.o(.data)
 eh_fsel_rdata.o(.data)
 eh_bs_rdata.o(.data)
 eh_id3_rdata.o(.data)
 eh_lrc_get_rdata.o(.data)

.bss            0x000000009fc15414      0x6b4
 music_main.o(.bss)
 .bss           0x000000009fc15414      0x3bc ./obj/music_main.o
                0x000000009fc15438                g_id3_info
                0x000000009fc1542c                g_music_scene
                0x000000009fc15770                music_app_timer_vector
                0x000000009fc15760                g_bookmark_fp
                0x000000009fc15528                g_song_filename
                0x000000009fc15414                g_speed_counter
                0x000000009fc15424                g_cur_time
                0x000000009fc15434                g_file
                0x000000009fc1571c                g_audible_bkinfo
                0x000000009fc15428                g_prev_time
                0x000000009fc15580                g_scroll_content
                0x000000009fc1541c                g_status_deal_flag
                0x000000009fc15464                g_title_buf
                0x000000009fc1573c                g_setting_comval
                0x000000009fc15430                g_lyric_charcode
                0x000000009fc155a0                g_scroll_vars
                0x000000009fc1570c                g_play_info
                0x000000009fc15416                g_audible_now
                0x000000009fc155bc                g_file_path_info
                0x000000009fc15660                g_browser_filepath
                0x000000009fc155a4                album_art_info
                0x000000009fc15704                g_music_status
                0x000000009fc15768                g_dc_status
                0x000000009fc1542f                g_timer_counter
                0x000000009fc15415                g_lyric_flag
                0x000000009fc15764                g_fsel_module
                0x000000009fc15568                g_music_info_buf
                0x000000009fc15418                g_error_num
                0x000000009fc155b8                g_display_bitmap
                0x000000009fc15420                g_total_time
                0x000000009fc15431                g_eq_restore
                0x000000009fc154f4                g_album_buf
                0x000000009fc1542d                g_enter_mode
                0x000000009fc154c0                g_artist_buf
                0x000000009fc1542e                g_play_set
                0x000000009fc15728                g_music_config
 music_setmenu_soundset_param.o(.bss)
 music_playing_show_lyric.o(.bss)
 common_ui_data.o(.bss)
 .bss           0x000000009fc157d0      0x18c ./../../lib/common_ui_data.o
                0x000000009fc15921                g_icon_id
                0x000000009fc15884                g_menu_items
                0x000000009fc15950                g_anm_callback
                0x000000009fc15959                g_anm_direction
                0x000000009fc157d6                g_gui_direct
                0x000000009fc15928                this_headbar_style
                0x000000009fc15943                g_ss_last_time
                0x000000009fc15958                g_anm_index
                0x000000009fc15945                g_ss_delay_flag
                0x000000009fc15838                dir_menu_title
                0x000000009fc15954                g_anm_sty_infor
                0x000000009fc15924                g_headbar_update
                0x000000009fc15910                g_back_to_parent_func
                0x000000009fc157d5                sys_status_timer_id
                0x000000009fc15938                g_ss_mode_backup
                0x000000009fc15918                usb_selecting_state
                0x000000009fc15914                g_back_to_parant_arg
                0x000000009fc15948                g_com_paint_cb
                0x000000009fc157d0                sys_comval
                0x000000009fc15941                g_ss_album_art_phase
                0x000000009fc1593c                g_ss_clk_backup
                0x000000009fc15942                g_ss_last_date
                0x000000009fc15935                this_headbar_mode
                0x000000009fc15939                g_ss_icon_backup
                0x000000009fc1591c                volume_value_last
                0x000000009fc15936                g_so_time
                0x000000009fc15844                dir_control
                0x000000009fc1591a                g_usb_timer_id
                0x000000009fc1593a                g_ss_timer_id
                0x000000009fc15919                g_usb_auto_select
                0x000000009fc157d4                sys_counter_timer_id
                0x000000009fc15923                g_battery_value
                0x000000009fc157d8                g_dir_browser
                0x000000009fc1585c                last_dir_control
                0x000000009fc1591e                volume_enter_forbidden
                0x000000009fc15940                g_ss_mode
                0x000000009fc15934                this_headbar_icon_id
                0x000000009fc15922                g_sys_minute
                0x000000009fc15876                line_cnt
                0x000000009fc157e4                g_file_list
                0x000000009fc15874                speed_control
                0x000000009fc15920                g_battery_display
                0x000000009fc15944                g_ss_vip_event
                0x000000009fc15937                g_ss_tag_backup
                0x000000009fc15946                g_kl_time_is_up
                0x000000009fc1591f                g_vol_time_up_flag
                0x000000009fc15878                g_menu_title
 common_func_data.o(.bss)
 .bss           0x000000009fc1595c       0x18 ./../../lib/common_func_data.o
                0x000000009fc15965                menu_history_valid
                0x000000009fc15968                dir_history_addr
                0x000000009fc15960                confmenu_offset
                0x000000009fc15971                g_keytone_backup
                0x000000009fc1595c                confmenu_fp
                0x000000009fc15970                this_filter_key_value
                0x000000009fc1596c                menu_history_addr
                0x000000009fc15964                dir_history_valid
 eh_rdata.o(.bss)
 .bss           0x000000009fc15974       0x88 ./../../../psp_rel/lib/lib_enhanced/eh_rdata.o
                0x000000009fc159c0                plist_list_layerno
                0x000000009fc1597c                file_total
                0x000000009fc159da                dir_total
                0x000000009fc159ba                plist_file_total
                0x000000009fc1599a                write_data_flag
                0x000000009fc159a4                plist_item_info
                0x000000009fc15988                obj_handle
                0x000000009fc159ce                plist_layer_offset
                0x000000009fc15975                fsel_module_type
                0x000000009fc159e2                dirlist_cur_file_folder_index
                0x000000009fc159a2                uspl_file_offset
                0x000000009fc15984                root_dir
                0x000000009fc159d8                m3u_curlist_index
                0x000000009fc159b8                plist_type_selector
                0x000000009fc159e8                dirlist_index_tbl
                0x000000009fc159a0                uspl_last_offset
                0x000000009fc159dc                dirlist_first_offset
                0x000000009fc15998                save_read_offset
                0x000000009fc159e4                dirlist_layer_offset
                0x000000009fc159ca                plist_start_file_index
                0x000000009fc1599e                uspl_first_offset
                0x000000009fc15990                fsel_init_val
                0x000000009fc1598c                vfs_mount
                0x000000009fc15980                cur_ext_name
                0x000000009fc159cc                plist_cur_file_index
                0x000000009fc1597a                file_no
                0x000000009fc1599c                uspl_file_total
                0x000000009fc15978                shuffle_sw
                0x000000009fc159e0                dirlist_file_offset
                0x000000009fc159c8                plist_start_sort_index
                0x000000009fc15974                loop_flag
                0x000000009fc15977                dir_layer
                0x000000009fc159bc                plist_info_offset
                0x000000009fc15986                obj_open_mode
                0x000000009fc15987                obj_open_type
                0x000000009fc159d0                lib_pfile_offset
                0x000000009fc159de                dirlist_file_index_offset
                0x000000009fc15976                fsel_error
                0x000000009fc1597e                g_file_index
 eh_fsel_rdata.o(.bss)
 .bss           0x000000009fc159fc       0x60 ./../../../psp_rel/lib/lib_enhanced/eh_fsel_rdata.o
                0x000000009fc15a59                cur_save_next_count
                0x000000009fc15a08                member_map
                0x000000009fc15a30                filtrate_shuffle_no
                0x000000009fc15a2d                cur_group
                0x000000009fc15a54                cur_save_pt
                0x000000009fc15a2b                member_max
                0x000000009fc15a2c                use_member_flag
                0x000000009fc15a00                group_map
                0x000000009fc15a58                cur_save_prev_count
                0x000000009fc15a2e                cur_member
                0x000000009fc15a2a                group_max
                0x000000009fc15a28                member_avg
                0x000000009fc15a56                dir_no
                0x000000009fc15a29                member_avg_group
                0x000000009fc15a5a                cur_overturn_flag
                0x000000009fc159fc                shuffle_total
                0x000000009fc15a34                play_num_list
 eh_bs_rdata.o(.bss)
 .bss           0x000000009fc15a5c       0x34 ./../../../psp_rel/lib/lib_enhanced/eh_bs_rdata.o
                0x000000009fc15a62                bs_file_total
                0x000000009fc15a68                list_layer_no
                0x000000009fc15a64                bs_uspl_cur
                0x000000009fc15a80                g_bs_dir_loc
                0x000000009fc15a60                bs_dir_total
                0x000000009fc15a5e                bs_select_fileno
                0x000000009fc15a70                plist_cur_tree
                0x000000009fc15a5c                bs_select_listno
 eh_id3_rdata.o(.bss)
 .bss           0x000000009fc15a90        0x4 ./../../../psp_rel/lib/lib_enhanced/eh_id3_rdata.o
                0x000000009fc15a90                id3_handle
 eh_lrc_get_rdata.o(.data)
 *(.sbss)
 *(.common)
 *(common)
 .bss           0x000000009fc15a94       0x14 ./../../../psp_rel/lib/lib_enhanced/eh_lrc_get_rdata.o
                0x000000009fc15a9c                lrc_cur_time
                0x000000009fc15aa4                lrc_lab_count
                0x000000009fc15a98                lrc_prev_time
                0x000000009fc15a94                lrc_cur_num
                0x000000009fc15aa0                lrc_next_time
 .bss           0x000000009fc15aa8       0x10 ./obj/music_scene_setmenu.o
 .bss           0x000000009fc15ab8       0x10 ./obj/music_setmenu_show_bookmark.o
                0x000000009fc15abc                bm_head
                0x000000009fc15ab8                bmk_cache_sector
                0x0000000040014c00                . = BANK_CONTROL_1_ADDR_BASE
                0x0000000000014c00                OFFSET = (. & 0x3ffff)

BANK_CONTROL_1_0
                0x0000000040014c00       0xcc
 ctor.o(.text .rodata)
 .text          0x0000000040014c00       0xcc ./../../../psp_rel/lib/ctor.o
                0x0000000040014c01                process_start
                0x0000000040014c31                __start
                0x0000000040054400                . = (((. + AP_BANK_SPACE) & ~ ((AP_BANK_SPACE - 0x1))) + OFFSET)

BANK_CONTROL_1_1
                0x0000000040054c00      0x800
 music_main.o(.text .rodata)
 .text          0x0000000040054c00      0x794 ./obj/music_main.o
                0x0000000040054d19                _check_bkinfo
                0x0000000040054c01                _load_cfg
                0x000000004005502d                _scene_dispatch
                0x0000000040055341                main
                0x0000000040054fb9                _app_deinit
                0x0000000040054ce1                _save_cfg
                0x0000000040054d81                _app_init
                0x0000000000000800                . = BANK_CONTROL_SIZE
 *fill*         0x0000000040055394       0x6c 00
                0x0000000040094400                . = (((. + AP_BANK_SPACE) & ~ ((AP_BANK_SPACE - 0x1))) + OFFSET)

BANK_CONTROL_1_2
                0x0000000040094c00      0x800
 music_scene_playing.o(.text .rodata)
 .text          0x0000000040094c00      0x5c0 ./obj/music_scene_playing.o
                0x0000000040094c55                music_open_engine
                0x00000000400950e1                _scene_play_exit
                0x0000000040095125                music_scene_playing
                0x0000000040094d0d                _scene_play_seteq
                0x0000000040094d8d                _scene_play_init
                0x0000000040094ce1                music_set_volume
 music_scene_playing_sub.o(.text .rodata .xdata)
 .text          0x00000000400951c0      0x188 ./obj/music_scene_playing_sub.o
                0x00000000400951c1                music_playlist_update_history
                0x0000000000000800                . = BANK_CONTROL_SIZE
 *fill*         0x0000000040095348       0xb8 00
                0x00000000400d4400                . = (((. + AP_BANK_SPACE) & ~ ((AP_BANK_SPACE - 0x1))) + OFFSET)

BANK_CONTROL_1_3
                0x00000000400d4c00      0x800
 music_playing_playdeal_sub.o(.text .rodata)
 .text          0x00000000400d4c00      0x448 ./obj/music_playing_playdeal_sub.o
                0x00000000400d4c31                play_eror_deal
                0x00000000400d4c01                music_clear_error
                0x00000000400d4e41                playing_check_status
                0x0000000000000800                . = BANK_CONTROL_SIZE
 *fill*         0x00000000400d5048      0x3b8 00
                0x0000000040114400                . = (((. + AP_BANK_SPACE) & ~ ((AP_BANK_SPACE - 0x1))) + OFFSET)

BANK_CONTROL_1_4
                0x0000000040114c00      0x800
 music_playing_playdeal.o(.text .rodata)
 .text          0x0000000040114c00      0x554 ./obj/music_playing_playdeal.o
                0x0000000040114d99                display_lrc_str
                0x0000000040114c65                _show_time_progress
                0x0000000040114f05                playing_loop_deal
                0x0000000040114c01                _mktime
                0x0000000040114e09                show_lyric
                0x0000000000000800                . = BANK_CONTROL_SIZE
 *fill*         0x0000000040115154      0x2ac 00
                0x0000000040154400                . = (((. + AP_BANK_SPACE) & ~ ((AP_BANK_SPACE - 0x1))) + OFFSET)

BANK_CONTROL_1_5
                0x0000000040154c00      0x800
 music_playing_paint.o(.xdata .text .rodata)
 .text          0x0000000040154c00      0x788 ./obj/music_playing_paint.o
                0x0000000040154e79                play_scene_paint
                0x0000000040154d25                play_scroll_init
                0x0000000040154c9d                play_paint_albumart
 .xdata         0x0000000040155388       0x10 ./obj/music_playing_paint.o
                0x0000000040155388                wregion1
                0x0000000040155390                wregion2
                0x0000000000000800                . = BANK_CONTROL_SIZE
 *fill*         0x0000000040155398       0x68 00
                0x0000000040194400                . = (((. + AP_BANK_SPACE) & ~ ((AP_BANK_SPACE - 0x1))) + OFFSET)

BANK_CONTROL_1_6
                0x0000000040194c00      0x800
 music_playing_keymsg.o(.text .rodata)
 .text          0x0000000040194c00      0x5dc ./obj/music_playing_keymsg.o
                0x0000000040194e99                play_key_play
                0x0000000040194cb5                music_fastplay_step
                0x0000000040194da1                play_key_prev
                0x0000000040194ef9                play_key_return
                0x0000000040194c49                music_resume
                0x0000000040194e29                play_key_next
                0x0000000040194f91                _scene_play_guimsg
                0x0000000040194c6d                music_fast_forward
                0x0000000040194d69                _scene_play_fast_keyup
                0x0000000040194d31                music_cancel_ffb
                0x0000000040194c01                music_stop
                0x0000000040194c25                music_pause
                0x0000000040194c91                music_fast_backward
 .rodata        0x00000000401951dc       0x58 ./obj/music_playing_keymsg.o
                0x000000004019520c                low_speed_level
                0x00000000401951dc                playing_key_map_list
                0x0000000040195220                high_speed_level
                0x0000000000000800                . = BANK_CONTROL_SIZE
 *fill*         0x0000000040195234      0x1cc 00
                0x00000000401d4400                . = (((. + AP_BANK_SPACE) & ~ ((AP_BANK_SPACE - 0x1))) + OFFSET)

BANK_CONTROL_1_7
                0x00000000401d4c00      0x800
 music_playing_getid3.o(.xdata .text .rodata)
 .text          0x00000000401d4c00      0x6c0 ./obj/music_playing_getid3.o
                0x00000000401d4d55                deal_id3_sub
                0x00000000401d519d                play_scene_getid3
                0x00000000401d4c01                play_scene_checktype
                0x00000000401d4e31                play_scene_deal_id3
                0x00000000401d4cb1                play_scene_initid3buf
 .rodata        0x00000000401d52c0       0x38 ./obj/music_playing_getid3.o
                0x00000000401d52c0                support_ext
                0x00000000401d52ec                support_id3_type
 .xdata         0x00000000401d52f8       0xb8 ./obj/music_playing_getid3.o
                0x00000000401d52f8                convert_buf
                0x0000000000000800                . = BANK_CONTROL_SIZE
 *fill*         0x00000000401d53b0       0x50 00
                0x0000000040214400                . = (((. + AP_BANK_SPACE) & ~ ((AP_BANK_SPACE - 0x1))) + OFFSET)

BANK_CONTROL_1_8
                0x0000000040214c00      0x800
 music_playing_show_lyric.o(.xdata .text .rodata)
 .text          0x0000000040214c00      0x600 ./obj/music_playing_show_lyric.o
                0x000000004021516d                lyric_deal_string
                0x0000000040214d75                parse_lyric
                0x0000000040215121                len_string
                0x00000000402150b5                lyric_param_init
                0x0000000040215061                lyric_strlen
                0x0000000000000800                . = BANK_CONTROL_SIZE
 *fill*         0x0000000040215200      0x200 00
                0x0000000040254400                . = (((. + AP_BANK_SPACE) & ~ ((AP_BANK_SPACE - 0x1))) + OFFSET)

BANK_CONTROL_1_9
                0x0000000040254c00      0x800
 music_scene_listmenu.o(.xdata .text .rodata)
 .text          0x0000000040254c00      0x61c ./obj/music_scene_listmenu.o
                0x0000000040254d6d                music_scene_listmenu_menu
                0x00000000402550ed                music_scene_listmenu
                0x0000000040254f31                music_scene_listmenu_list
 music_listmenu_listmenu.o(.text .rodata)
 .text          0x000000004025521c      0x118 ./obj/music_listmenu_listmenu.o
                0x00000000402552c1                list_scene_allsongplay_sure
                0x000000004025521d                list_scene_shuffleplay_sure
                0x000000004025530d                list_scene_apecue_sure
                0x0000000000000800                . = BANK_CONTROL_SIZE
 *fill*         0x0000000040255334       0xcc 00
                0x0000000040294400                . = (((. + AP_BANK_SPACE) & ~ ((AP_BANK_SPACE - 0x1))) + OFFSET)

BANK_CONTROL_1_10
                0x0000000040294c00      0x800
 music_listmenu_menusure.o(.xdata .text .rodata)
 .text          0x0000000040294c00      0x6f8 ./obj/music_listmenu_menusure.o
                0x00000000402950d1                list_scene_create_sure
                0x0000000040294c11                list_scene_artist_sure
                0x0000000040294d09                list_scene_favor1_sure
                0x00000000402950b1                list_scene_books_sure
                0x00000000402950e1                list_scene_check_change
                0x0000000040294dfd                load_breakinfo
                0x00000000402950c1                list_scene_authors_sure
                0x0000000040294c31                list_scene_genre_sure
                0x0000000040294cf9                list_scene_favor_sure
                0x0000000040294c41                list_scene_albumlist_sure
                0x0000000040295025                list_scene_audresume_sure
                0x0000000040294ead                list_scene_audible_sure
                0x0000000040294db1                get_audible_id3_title
                0x0000000040294c01                list_scene_allsong_sure
                0x0000000040294d79                list_scene_favor3_sure
                0x0000000040294c51                list_scene_favor_total
                0x0000000040294d41                list_scene_favor2_sure
                0x00000000402951b5                list_scene_maindisk_sure
                0x0000000040294c21                list_scene_album_sure
                0x0000000040295235                list_scene_carddisk_sure
 .xdata         0x00000000402952f8       0xb4 ./obj/music_listmenu_menusure.o
                0x00000000402952f8                audible_resume_data
                0x0000000000000800                . = BANK_CONTROL_SIZE
 *fill*         0x00000000402953ac       0x54 00
                0x00000000402d4400                . = (((. + AP_BANK_SPACE) & ~ ((AP_BANK_SPACE - 0x1))) + OFFSET)

BANK_CONTROL_1_11
                0x00000000402d4c00      0x800
 music_listmenu_menuoption.o(.text .rodata)
 .text          0x00000000402d4c00      0x1ec ./obj/music_listmenu_menuoption.o
                0x00000000402d4ce9                list_scene_favor_option
                0x00000000402d4da5                list_scene_favor2_option
                0x00000000402d4d81                list_scene_favor1_option
                0x00000000402d4c01                list_scene_menu_option
                0x00000000402d4dc9                list_scene_favor3_option
 .rodata        0x00000000402d4dec       0x18 ./obj/music_listmenu_menuoption.o
                0x00000000402d4dec                entry_favor_id1
                0x00000000402d4df4                entry_favor_id2
                0x00000000402d4dfc                entry_favor_id3
 music_listmenu_optionitem.o(.text .rodata)
 .text          0x00000000402d4e04      0x1cc ./obj/music_listmenu_optionitem.o
                0x00000000402d4e15                list_scene_musicplay_sure
                0x00000000402d4e55                list_scene_favorsel
                0x00000000402d4f29                list_scene_favor1play_sure
                0x00000000402d4e25                list_scene_musicpause_sure
                0x00000000402d4e45                list_scene_radiomute_sure
                0x00000000402d4f99                list_scene_favor3play_sure
                0x00000000402d4e05                list_scene_option_option
                0x00000000402d4f61                list_scene_favor2play_sure
                0x00000000402d4e35                list_scene_radioplay_sure
                0x0000000000000800                . = BANK_CONTROL_SIZE
 *fill*         0x00000000402d4fd0      0x430 00
                0x0000000040314400                . = (((. + AP_BANK_SPACE) & ~ ((AP_BANK_SPACE - 0x1))) + OFFSET)

BANK_CONTROL_1_12
                0x0000000040314c00      0x800
 music_listmenu_listoption.o(.text .rodata)
 .text          0x0000000040314c00      0x6ac ./obj/music_listmenu_listoption.o
                0x0000000040315239                list_scene_addfavor_sure
                0x0000000040314da5                favorlist_option_result_proc
                0x0000000040314cf1                playlist_option_result_proc
                0x000000004031526d                list_scene_addfavor2_sure
                0x000000004031527d                list_scene_addfavor3_sure
                0x0000000040314f05                list_scene_favorlist_check
                0x0000000040315125                list_scene_list_option_callback
                0x0000000040314fc1                list_scene_favorlist2_option
                0x000000004031528d                list_scene_delfavor_sure
                0x0000000040314e49                list_scene_list_option
                0x0000000040315229                list_scene_listplay_sure
                0x000000004031525d                list_scene_addfavor1_sure
                0x0000000040314f9d                list_scene_favorlist1_option
                0x0000000040314fe5                list_scene_favorlist3_option
                0x000000004031529d                list_scene_clrfavor_sure
                0x0000000040315095                m3ulist_option_result_proc
                0x0000000040315009                list_scene_m3ulist_option
 .rodata        0x00000000403152ac       0x18 ./obj/music_listmenu_listoption.o
                0x00000000403152ac                entry_id1
                0x00000000403152b4                entry_id2
                0x00000000403152bc                entry_id3
                0x0000000000000800                . = BANK_CONTROL_SIZE
 *fill*         0x00000000403152c4      0x13c 00
                0x0000000040354400                . = (((. + AP_BANK_SPACE) & ~ ((AP_BANK_SPACE - 0x1))) + OFFSET)

BANK_CONTROL_1_13
                0x0000000040354c00      0x800
 music_scene_setmenu.o(.text .rodata .xdata)
 .text          0x0000000040354c00      0x1c4 ./obj/music_scene_setmenu.o
                0x0000000040354cf9                music_scene_setmenu
                0x0000000040354c21                set_scene_record_file
                0x0000000040354c11                set_scene_levelother_option
                0x0000000040354c01                set_scene_leveltop_option
 .rodata        0x0000000040354dc4       0x10 ./obj/music_scene_setmenu.o
 .xdata         0x0000000040354dd4       0x4c ./obj/music_scene_setmenu.o
                0x0000000000000800                . = BANK_CONTROL_SIZE
 *fill*         0x0000000040354e20      0x5e0 00
                0x0000000040394400                . = (((. + AP_BANK_SPACE) & ~ ((AP_BANK_SPACE - 0x1))) + OFFSET)

BANK_CONTROL_1_14
                0x0000000040394c00      0x800
 music_setmenu_playmode.o(.text .rodata)
 .text          0x0000000040394c00      0x404 ./obj/music_setmenu_playmode.o
                0x0000000040394ebd                set_scene_repeatoff_sure
                0x0000000040394df1                set_scene_repeat_sure
                0x0000000040394da9                set_scene_fromartist_sure
                0x0000000040394f05                set_scene_repeatintro_sure
                0x0000000040394e79                set_scene_switchmode
                0x0000000040394f81                set_scene_shuffleoff_sure
                0x0000000040394ed5                set_scene_repeatone_sure
                0x0000000040394eed                set_scene_repeatall_sure
                0x0000000040394dc1                set_scene_fromalbum_sure
                0x0000000040394d91                set_scene_fromallsong_sure
                0x0000000040394ead                set_scene_cuemode
                0x0000000040394c69                music_change_filepath
                0x0000000040394ca1                set_scene_switchpath
                0x0000000040394fbd                set_scene_shuffleon_sure
                0x0000000040394f1d                set_scene_shuffle_sure
                0x0000000040394dd9                set_scene_fromgenre_sure
                0x0000000040394c01                check_plist_exit
 .rodata        0x0000000040395004       0x18 ./obj/music_setmenu_playmode.o
                0x0000000040395004                mplist_name
                0x0000000000000800                . = BANK_CONTROL_SIZE
 *fill*         0x000000004039501c      0x3e4 00
                0x00000000403d4400                . = (((. + AP_BANK_SPACE) & ~ ((AP_BANK_SPACE - 0x1))) + OFFSET)

BANK_CONTROL_1_15
                0x00000000403d4c00      0x800
 music_setmenu_soundset.o(.text .rodata)
 .text          0x00000000403d4c00      0x2d0 ./obj/music_setmenu_soundset.o
                0x00000000403d4d45                set_scene_eqfunk_sure
                0x00000000403d4ea9                set_scene_eqclassic_callback
                0x00000000403d4e45                set_scene_eqnormal_callback
                0x00000000403d4ced                set_scene_eqnormal_sure
                0x00000000403d4dc9                set_scene_eqclassical_sure
                0x00000000403d4d19                set_scene_eqrock_sure
                0x00000000403d4e81                set_scene_eqhiphop_callback
                0x00000000403d4ebd                set_scene_eqtechno_callback
                0x00000000403d4d9d                set_scene_eqjazz_sure
                0x00000000403d4df5                set_scene_eqtechno_sure
                0x00000000403d4d71                set_scene_eqhiphop_sure
                0x00000000403d4e95                set_scene_eqjazz_callback
                0x00000000403d4e59                set_scene_eqrock_callback
                0x00000000403d4c1d                set_scene_eq_sure
                0x00000000403d4e6d                set_scene_eqfunk_callback
                0x0000000000000800                . = BANK_CONTROL_SIZE
 *fill*         0x00000000403d4ed0      0x530 00
                0x0000000040414400                . = (((. + AP_BANK_SPACE) & ~ ((AP_BANK_SPACE - 0x1))) + OFFSET)

BANK_CONTROL_1_16
                0x0000000040414c00      0x800
 music_setmenu_soundset_param.o(.xdata .text .rodata)
 .text          0x0000000040414c00      0x21c ./obj/music_setmenu_soundset_param.o
                0x0000000040414c71                set_scene_spfaster_callback
                0x0000000040414c85                set_scene_spnormal_sure
                0x0000000040414ca9                set_scene_spslower_sure
                0x0000000040414ccd                set_scene_spfaster_sure
                0x0000000040414c49                set_scene_spnormal_callback
                0x0000000040414da9                set_scene_vollimit_sure
                0x0000000040414cf1                set_scene_speed_sure
                0x0000000040414c5d                set_scene_spslower_callback
                0x0000000040414c01                set_scene_speed_callback
                0x0000000000000800                . = BANK_CONTROL_SIZE
 *fill*         0x0000000040414e1c      0x5e4 00
                0x0000000040454400                . = (((. + AP_BANK_SPACE) & ~ ((AP_BANK_SPACE - 0x1))) + OFFSET)

BANK_CONTROL_1_17
                0x0000000040454c00      0x800
 music_setmenu_otheritem.o(.xdata .text .rodata)
 .text          0x0000000040454c00      0x338 ./obj/music_setmenu_otheritem.o
                0x0000000040454c01                set_scene_sleeptimer_sure
                0x0000000040454ced                adjust_min_time
                0x0000000040454d11                set_scene_setsleep_sure
                0x0000000040454df5                set_scene_delete_sure
                0x0000000040454f29                set_scene_getlicense_sure
                0x0000000040454cd1                set_scene_closesleep_sure
 music_setmenu_audible.o(.text .rodata .xdata)
 .text          0x0000000040454f38      0x30c ./obj/music_setmenu_audible.o
                0x00000000404551cd                set_scene_setsection_sure
                0x0000000040454f39                _delete_audible_posfile
                0x00000000404551f9                set_scene_settitle_sure
                0x0000000040455145                music_set_section_mode
                0x000000004045517d                set_scene_switchmode_sure
                0x0000000040455015                set_scene_delaudible_sure
 .rodata        0x0000000040455244       0x10 ./obj/music_setmenu_audible.o
                0x0000000040455244                pos_ext
                0x0000000040455250                pos_ext_name
 music_setmenu_favordeal.o(.text .rodata)
 .text          0x0000000040455254       0xe4 ./obj/music_setmenu_favordeal.o
                0x00000000404552b9                set_scene_addfavor3_sure
                0x0000000040455255                set_scene_addfavor_sure
                0x0000000040455319                set_scene_delfavor3_sure
                0x0000000040455279                set_scene_addfavor1_sure
                0x00000000404552f9                set_scene_delfavor2_sure
                0x00000000404552d9                set_scene_delfavor1_sure
                0x0000000040455299                set_scene_addfavor2_sure
                0x0000000000000800                . = BANK_CONTROL_SIZE
 *fill*         0x0000000040455338       0xc8 00
                0x0000000000000600                BOOKMARK_BANK_SIZE = (BANK_CONTROL_SIZE - 0x200)
                0x0000000040494c00                XDATA_BASE = (BANK_CONTROL_1_ADDR_BASE + (AP_BANK_SPACE * 0x12))

XDATA_BANK_18   0x0000000040494c00      0x200
 music_setmenu_show_cue.o(.xdata)
 .xdata         0x0000000040494c00      0x200 ./obj/music_setmenu_show_cue.o
                0x0000000040494c00                bm_buf
                0x0000000040494e00                . = 0x200
                0x00000000404d4600                . = ((((. + AP_BANK_SPACE) & ~ ((AP_BANK_SPACE - 0x1))) + OFFSET) + 0x200)

BANK_CONTROL_1_18
                0x00000000404d4e00      0x600
 music_ape_cue.o(.text .rodata)
 .text          0x00000000404d4e00       0x20 ./obj/music_ape_cue.o
                0x00000000404d4e01                music_load_cuefile
                0x00000000404d4e0d                set_playmode_apecue
 music_setmenu_show_cue.o(.text .rodata)
 .text          0x00000000404d4e20       0x38 ./obj/music_setmenu_show_cue.o
                0x00000000404d4e21                ui_show_cue_title
                0x00000000404d4e45                handle_cue
                0x00000000404d4e2d                ui_show_cue
                0x0000000000000600                . = BOOKMARK_BANK_SIZE
 *fill*         0x00000000404d4e58      0x5a8 00
                0x0000000040514400                . = (((. + AP_BANK_SPACE) & ~ ((AP_BANK_SPACE - 0x1))) + OFFSET)

BANK_CONTROL_1_19
                0x0000000040514c00      0x800
 music_add_favorite.o(.text .rodata)
 .text          0x0000000040514c00      0x748 ./obj/music_add_favorite.o
                0x0000000040514d41                add_favorite_nowplaying
                0x0000000040514fdd                add_favorite_dialog
                0x0000000040515105                add_favorite_listmenu
                0x0000000040514c8d                get_music_id3_title
                0x0000000040514f09                add_favorite_list
                0x0000000040514c01                music_add_favorite_deal
                0x0000000040515265                add_favorite_setmenu
                0x0000000040514cdd                check_add_favorite_result
 .rodata        0x0000000040515348        0xc ./obj/music_add_favorite.o
                0x0000000040515348                allsong_str
                0x0000000000000800                . = BANK_CONTROL_SIZE
 *fill*         0x0000000040515354       0xac 00
                0x0000000040554400                . = (((. + AP_BANK_SPACE) & ~ ((AP_BANK_SPACE - 0x1))) + OFFSET)

BANK_CONTROL_1_20
                0x0000000040554c00      0x800
 music_add_favorite_sub.o(.text .rodata)
 .text          0x0000000040554c00      0x380 ./obj/music_add_favorite_sub.o
                0x0000000040554c8d                add_favorlist_all
 .rodata        0x0000000040554f80       0x18 ./obj/music_add_favorite_sub.o
                0x0000000040554f80                add_favor_key_map_list
                0x0000000000000800                . = BANK_CONTROL_SIZE
 *fill*         0x0000000040554f98      0x468 00
                0x0000000040594400                . = (((. + AP_BANK_SPACE) & ~ ((AP_BANK_SPACE - 0x1))) + OFFSET)

BANK_CONTROL_1_21
                0x0000000040594c00      0x800
 music_del_favorite.o(.text .rodata)
 .text          0x0000000040594c00      0x634 ./obj/music_del_favorite.o
                0x0000000040595039                del_favorite_list
                0x0000000040594f65                del_favorite_setmenu
                0x0000000040594c01                music_del_favorite_deal
                0x0000000040594c3d                check_del_favorite_result
                0x0000000040595165                del_favorite_listmenu
                0x0000000040594e35                del_favorite_nowplaying
                0x0000000040594c71                del_favorite_dialog
                0x0000000000000800                . = BANK_CONTROL_SIZE
 *fill*         0x0000000040595234      0x1cc 00
                0x00000000405d4400                . = (((. + AP_BANK_SPACE) & ~ ((AP_BANK_SPACE - 0x1))) + OFFSET)

BANK_CONTROL_1_22
                0x00000000405d4c00      0x800
 music_control_bank.o(.text .rodata)
 .text          0x00000000405d4c00      0x564 ./obj/music_control_bank.o
                0x00000000405d4ed9                music_play_cuemusic
                0x00000000405d4f29                music_set_eq
                0x00000000405d4dc9                music_file_init
                0x00000000405d4fc9                _scene_result_deal
                0x00000000405d4f01                music_play_bookmark
                0x00000000405d4c01                music_deal_sd_out
                0x00000000405d4f7d                music_get_section_info
                0x00000000405d4fa5                music_standby_play
                0x00000000405d4ea5                music_close_engine
                0x00000000405d4f51                music_set_playmode
                0x00000000405d4cd9                music_message_deal
                0x0000000000000800                . = BANK_CONTROL_SIZE
 *fill*         0x00000000405d5164      0x29c 00
                0x0000000040614600                . = ((((. + AP_BANK_SPACE) & ~ ((AP_BANK_SPACE - 0x1))) + OFFSET) + 0x200)

BANK_CONTROL_1_23
                0x0000000040614e00      0x600
 music_creat_albumart_file.o(.text .rodata .xdata)
 .text          0x0000000040614e00      0x218 ./obj/music_creat_albumart_file.o
                0x0000000040614ee1                check_albumart_file_exist
 .rodata        0x0000000040615018       0x18 ./obj/music_creat_albumart_file.o
                0x0000000000000600                . = BOOKMARK_BANK_SIZE
 *fill*         0x0000000040615030      0x3d0 00
                0x0000000040654400                . = (((. + AP_BANK_SPACE) & ~ ((AP_BANK_SPACE - 0x1))) + OFFSET)

BANK_CONTROL_1_24
                0x0000000040654c00      0x7e0
 music_menu_config.o(.text .rodata)
 .rodata        0x0000000040654c00      0x7e0 ./obj/music_menu_config.o
                0x0000000040654d78                leafitems
                0x0000000040654d68                item_head
                0x0000000040654c00                music_entrymenu
                0x0000000040654c10                entryitems
                0x0000000040694400                . = (((. + AP_BANK_SPACE) & ~ ((AP_BANK_SPACE - 0x1))) + OFFSET)

BANK_CONTROL_1_25
                0x0000000040694c00      0x800
 music_audible_sys.o(.text .rodata .xdata)
 .text          0x0000000040694c00      0x23c ./obj/music_audible_sys.o
                0x0000000040694c51                music_load_sysfile
 .rodata        0x0000000040694e3c       0x4c ./obj/music_audible_sys.o
                0x0000000040694e3c                sys_file_name
                0x0000000040694e6c                sys_ascfile_dir2
                0x0000000040694e74                sys_unifile_dir2
 .xdata         0x0000000040694e88      0x24c ./obj/music_audible_sys.o
                0x0000000000000800                . = BANK_CONTROL_SIZE
 *fill*         0x00000000406950d4      0x32c 00
                0x00000000406d4600                . = ((((. + AP_BANK_SPACE) & ~ ((AP_BANK_SPACE - 0x1))) + OFFSET) + 0x200)

BANK_CONTROL_1_26
                0x00000000406d4e00      0x600
 music_setmenu_bookmark_deal_sub.o(.text .rodata)
 .text          0x00000000406d4e00      0x2b0 ./obj/music_setmenu_bookmark_deal_sub.o
                0x00000000406d5041                get_bookmark_time
                0x00000000406d4e01                handle_bookmark
                0x0000000000000600                . = BOOKMARK_BANK_SIZE
 *fill*         0x00000000406d50b0      0x350 00
                0x0000000040714600                . = ((((. + AP_BANK_SPACE) & ~ ((AP_BANK_SPACE - 0x1))) + OFFSET) + 0x200)

BANK_CONTROL_1_27
                0x0000000040714e00      0x600
 music_setmenu_bookmark_deal_sub.o(.text .rodata)
                0x0000000000000600                . = BOOKMARK_BANK_SIZE
 *fill*         0x0000000040714e00      0x600 00
                0x0000000040754600                . = ((((. + AP_BANK_SPACE) & ~ ((AP_BANK_SPACE - 0x1))) + OFFSET) + 0x200)

BANK_CONTROL_1_28
                0x0000000040754e00      0x600
 music_setmenu_bookmark_deal.o(.text .rodata)
 .text          0x0000000040754e00      0x3e4 ./obj/music_setmenu_bookmark_deal.o
                0x0000000040754e01                find_index
                0x00000000407550ad                get_bookmark_index
                0x0000000000000600                . = BOOKMARK_BANK_SIZE
 *fill*         0x00000000407551e4      0x21c 00
                0x0000000040794600                . = ((((. + AP_BANK_SPACE) & ~ ((AP_BANK_SPACE - 0x1))) + OFFSET) + 0x200)

BANK_CONTROL_1_29
                0x0000000040794e00      0x600
 music_del_bookmark.o(.text .rodata)
 .text          0x0000000040794e00      0x1cc ./obj/music_del_bookmark.o
                0x0000000040794f05                music_del_bookmark
                0x0000000040794e01                del_bookmark_by_index
                0x0000000000000600                . = BOOKMARK_BANK_SIZE
 *fill*         0x0000000040794fcc      0x434 00
                0x00000000407d4600                . = ((((. + AP_BANK_SPACE) & ~ ((AP_BANK_SPACE - 0x1))) + OFFSET) + 0x200)

BANK_CONTROL_1_30
                0x00000000407d4e00      0x600
 music_create_bookmark.o(.text .rodata)
 .text          0x00000000407d4e00      0x1bc ./obj/music_create_bookmark.o
                0x00000000407d4ea5                check_bookmark_exist
 .rodata        0x00000000407d4fbc       0x28 ./obj/music_create_bookmark.o
                0x0000000000000600                . = BOOKMARK_BANK_SIZE
 *fill*         0x00000000407d4fe4      0x41c 00
                0x0000000040814400                . = (((. + AP_BANK_SPACE) & ~ ((AP_BANK_SPACE - 0x1))) + OFFSET)

BANK_CONTROL_1_31
                0x0000000040814c00      0x800
 music_setmenu_show_bookmark.o(.xdata .text .rodata)
 .text          0x0000000040814c00      0x5a0 ./obj/music_setmenu_show_bookmark.o
                0x0000000040814d9d                get_one_screen_time
                0x0000000040814c01                get_bookmark_item
                0x0000000040814e5d                ui_get_bookmark_index
                0x0000000040814f2d                ui_show_bookmark
                0x0000000040814cc9                ui_show_bookmark_item
                0x0000000040815139                del_bookmark_file
 .rodata        0x00000000408151a0       0x30 ./obj/music_setmenu_show_bookmark.o
                0x00000000408151ac                bookmark_key_map_list
                0x00000000408151a0                empty_items_str
 .xdata         0x00000000408151d0       0xe8 ./obj/music_setmenu_show_bookmark.o
                0x00000000408151d0                disp_buf
                0x0000000040815248                mbk_show_data
 music_setmenu_bookmark.o(.text .rodata)
 .text          0x00000000408152b8       0x78 ./obj/music_setmenu_bookmark.o
                0x0000000040815309                set_scene_bookmark_del_sure
                0x00000000408152e1                set_scene_bookmark_sel_sure
                0x00000000408152b9                set_scene_bookmark_add_sure
                0x0000000000000800                . = BANK_CONTROL_SIZE
 *fill*         0x0000000040815330       0xd0 00
                0x0000000040854400                . = (((. + AP_BANK_SPACE) & ~ ((AP_BANK_SPACE - 0x1))) + OFFSET)

BANK_CONTROL_1_32
                0x0000000040854c00      0x800
 music_clear_favorite.o(.text .rodata)
 .text          0x0000000040854c00      0x214 ./obj/music_clear_favorite.o
                0x0000000040854c01                clr_favorite_list
                0x0000000040854d45                clr_favorite_menu
                0x0000000000000800                . = BANK_CONTROL_SIZE
 *fill*         0x0000000040854e14      0x5ec 00
                0x0000000048054400                . = (BANK_UI_1_ADDR_BASE + (AP_BANK_SPACE * 0x1))
                0x0000000000014400                OFFSET = (. & 0x3ffff)

BANK_UI_1_1     0x0000000048054400      0x800
 music_listmenu_albumlist.o(.text .rodata .xdata)
 .text          0x0000000048054400      0x5f4 ./obj/music_listmenu_albumlist.o
                0x0000000048054465                store_albumart_pic
                0x00000000480546d1                music_paint_albumart
                0x000000004805447d                show_albumart_pic
 .rodata        0x00000000480549f4        0xc ./obj/music_listmenu_albumlist.o
 .xdata         0x0000000048054a00       0x44 ./obj/music_listmenu_albumlist.o
                0x0000000000000800                . = BANK_CONTROL_SIZE
 *fill*         0x0000000048054a44      0x1bc 00
                0x0000000048094400                . = (((. + AP_BANK_SPACE) & ~ ((AP_BANK_SPACE - 0x1))) + OFFSET)

BANK_UI_1_2     0x0000000048094400      0x800
 music_setmenu_bookmark_rw.o(.text .rodata)
 .text          0x0000000048094400      0x1e4 ./obj/music_setmenu_bookmark_rw.o
                0x0000000048094521                write_bmk_index
                0x00000000480945a5                open_bookmark
                0x0000000048094401                write_sector
                0x00000000480944b1                read_bmk_index
                0x0000000048094559                read_bmk_item
                0x000000004809444d                read_sector
 .rodata        0x00000000480945e4       0x28 ./obj/music_setmenu_bookmark_rw.o
                0x0000000000000800                . = BANK_CONTROL_SIZE
 *fill*         0x000000004809460c      0x5f4 00
LOAD ./../../../psp_rel/usermodule/enhanced/case_link_xn/music_link.xn
LOAD ./../../../psp_rel/include/link_base.xn
                0x0000000000000000                DRV_GROUP_STG_BASE = 0x0
                0x0000000000000001                DRV_GROUP_STG_CARD = 0x1
                0x0000000000000002                DRV_GROUP_STG_UHOST = 0x2
                0x0000000000000003                DRV_GROUP_FAT32 = 0x3
                0x0000000000000004                DRV_GROUP_EXFAT = 0x4
                0x0000000000000005                DRV_GROUP_UD = 0x5
                0x0000000000000006                DRV_GROUP_UI = 0x6
                0x0000000000000007                DRV_GROUP_LCD = 0x7
                0x0000000000000008                DRV_GROUP_FM = 0x8
                0x0000000000000009                DRV_GROUP_KEY = 0x9
                0x000000000000000a                DRV_GROUP_CCD = 0xa
                0x000000000000000b                DRV_GROUP_I2C = 0xb
                0x000000000000000c                DRV_GROUP_AUDIO_DEVICE = 0xc
                0x000000000000000d                DRV_GROUP_TTS = 0xd
                0x000000000000000e                DRV_GROUP_BT = 0xe
                0x000000000000000f                DRV_GROUP_SYS = 0xf
                0x000000000003ffff                SRAM_SIZE_MASK = 0x3ffff
                0x000000009fc00000                RDATA_ADDR_BASE = 0x9fc00000
                0x00000000bfc00000                RCODE_ADDR_BASE = 0xbfc00000
                0x0000000000000001                KERNEL_BANK_A = 0x1
                0x0000000000000002                KERNEL_BANK_B = 0x2
                0x0000000000000003                KERNEL_BANK_C = 0x3
                0x0000000000040000                BANK_SPACE = 0x40000
                0x0000000000000000                FRONT_AP = 0x0
                0x0000000000000001                BACK_AP = 0x1
                0x0000000000000002                PROCESS_MANAGER_AP = 0x2
                0x0000000000000000                FRONT_CODEC = 0x0
                0x0000000000000001                BACK_CODEC = 0x1
                0x0000000000000040                AP_BANK_FRONT_CONTROL_1 = 0x40
                0x0000000000000048                AP_BANK_FRONT_UI_1 = 0x48
                0x0000000000000050                AP_BANK_FRONT_BASAL = 0x50
                0x0000000000000058                AP_BANK_FRONT_CODEC = 0x58
                0x0000000000000060                AP_BANK_BACK_CONTROL_1 = 0x60
                0x0000000000000068                AP_BANK_BACK_BASAL = 0x68
                0x0000000000000070                AP_BANK_BACK_CODEC = 0x70
                0x0000000000000078                AP_BANK_FRONT_ENHANCED_1 = 0x78
                0x0000000000000071                AP_BANK_FRONT_ENHANCED_2 = 0x71
                0x000000000000007a                AP_BANK_BACK_ENHANCED_1 = 0x7a
                0x000000000000007b                AP_BANK_BACK_ENHANCED_2 = 0x7b
                0x0000000000000072                AP_BANK_BTENGINE_CONTROL_1 = 0x72
                0x0000000000000073                AP_BANK_BTENGINE_LIB_1 = 0x73
                0x0000000000000074                AP_BANK_BTENGINE_LIB_2 = 0x74
                0x0000000000000075                AP_BANK_BTENGINE_EXTEND_1 = 0x75
                0x0000000000000076                AP_BANK_BTENGINE_EXTEND_2 = 0x76
                0x0000000000000077                AP_BANK_BTENGINE_EXTEND_3 = 0x77
                0x000000000000007c                AP_BANK_BTENGINE_EXTEND_4 = 0x7c
                0x0000000000000079                AP_BANK_BTENGINE_EXTEND_5 = 0x79
                0x000000000000007f                AP_BANK_MANAGER = 0x7f
                0x0000000000000041                AP_BANK_AUTOTEST = 0x41
                0x0000000000000000                SROM_BROM_ADDR = 0x0
                0x0000000000002600                SROM_BROM_SIZE = 0x2600
                0x0000000000002600                SROM_SPINOR_ADDR = (SROM_BROM_ADDR + SROM_BROM_SIZE)
                0x0000000000000c00                SROM_SPINOR_SIZE = 0xc00
                0x0000000000003200                SROM_TWI_ADDR = (SROM_SPINOR_ADDR + SROM_SPINOR_SIZE)
                0x0000000000000700                SROM_TWI_SIZE = 0x700
                0x0000000000003900                SROM_STUB_ADDR = (SROM_TWI_ADDR + SROM_TWI_SIZE)
                0x0000000000000700                SROM_STUB_SIZE = 0x700
                0x0000000000000e00                SROM_SPINOR_SIZE_MDY = 0xe00
                0x0000000000003400                SROM_TWI_ADDR_MDY = (SROM_SPINOR_ADDR + SROM_SPINOR_SIZE_MDY)
                0x0000000000000700                SROM_TWI_SIZE_MDY = 0x700
                0x0000000000003b00                SROM_STUB_ADDR_MDY = (SROM_TWI_ADDR_MDY + SROM_TWI_SIZE_MDY)
                0x0000000000000500                SROM_STUB_SIZE_MDY = 0x500
                0x0000000000004000                SROM_KERNEL_ADDR = (SROM_STUB_ADDR + SROM_STUB_SIZE)
                0x0000000000004000                SROM_KERNEL_SIZE = 0x4000
                0x000000000000c000                SROM_FS_ADDR = 0xc000
                0x0000000000001c00                SROM_FS_SIZE = 0x1c00
                0x000000000000dc00                SROM_SPINOR1_ADDR = (SROM_FS_ADDR + SROM_FS_SIZE)
                0x0000000000000400                SROM_SPINOR1_SIZE = 0x400
                0x0000000000008000                SRAM_OS_RCODE_ADDR = 0x8000
                0x0000000000000c00                SRAM_OS_RCODE_SIZE = 0xc00
                0x0000000000008c00                SRAM_SPINOR_RCODE_ADDR = 0x8c00
                0x0000000000000400                SRAM_SPINOR_RCODE_SIZE = 0x400
                0x0000000000009000                SRAM_BANK_A_ADDR = 0x9000
                0x0000000000000400                SRAM_BANK_A_SIZE = 0x400
                0x0000000000009400                SRAM_BANK_B_ADDR = 0x9400
                0x0000000000000800                SRAM_BANK_B_SIZE = 0x800
                0x0000000000009c00                SRAM_UI_RCODE1_ADDR = 0x9c00
                0x0000000000000300                SRAM_UI_RCODE1_SIZE = 0x300
                0x0000000000009f00                SRAM_AUDIO_GLOBAL_DATA_ADDR = 0x9f00
                0x0000000000000060                SRAM_AUDIO_GLOBAL_DATA_SIZE = 0x60
                0x0000000000009f60                SRAM_UHOST_GLOBAL_DATA_ADDR = 0x9f60
                0x0000000000000010                SRAM_UHOST_GLOBAL_DATA_SIZE = 0x10
                0x0000000000009f70                SRAM_CARD_GLOBAL_DATA_ADDR = 0x9f70
                0x0000000000000010                SRAM_CARD_GLOBAL_DATA_SIZE = 0x10
                0x0000000000009f80                SRAM_SYS_SHARE_DATA_ADDR = 0x9f80
                0x0000000000000040                SRAM_SYS_SHARE_DATA_SIZE = 0x40
                0x0000000000009fc0                SRAM_RAM6_CCD_GLOBAL_DATA_ADDR = 0x9fc0
                0x0000000000000020                SRAM_RAM6_CCD_GLOBAL_DATA_SIZE = 0x20
                0x0000000000009fe0                SRAM_RAM6_RESEVER_ADDR = 0x9fe0
                0x0000000000000020                SRAM_RAM6_RESEVER_SIZE = 0x20
                0x000000000000a000                SRAM_LCD_RCODE_ADDR = 0xa000
                0x0000000000000800                SRAM_LCD_RCODE_SIZE = 0x800
                0x000000000000a800                SRAM_UI_RCODE2_ADDR = 0xa800
                0x0000000000001000                SRAM_UI_RCODE2_SIZE = 0x1000
                0x000000000000b800                SRAM_LCD_BUFFER_ADDR = 0xb800
                0x0000000000000400                SRAM_LCD_BUFFER_SIZE = 0x400
                0x000000000000bc00                SRAM_UI_DATA_ADDR = 0xbc00
                0x0000000000000400                SRAM_UI_DATA_SIZE = 0x400
                0x0000000000010000                SRAM_KEY_MESSAGE_RCODE_ADDR = 0x10000
                0x0000000000000a00                SRAM_KEY_MESSAGE_RCODE_SIZE = 0xa00
                0x0000000000010a00                SRAM_RAM0_RESEVER1_ADDR = 0x10a00
                0x0000000000000200                SRAM_RAM0_RESEVER1_SIZE = 0x200
                0x0000000000010c00                SRAM_AP_FRONT_BASAL_RCODE_ADDR = 0x10c00
                0x0000000000000100                SRAM_AP_FRONT_BASAL_RCODE_SIZE = 0x100
                0x0000000000010d00                SRAM_AP_BANK_BACK_CONTROL_ADDR = 0x10d00
                0x0000000000000800                SRAM_AP_BANK_BACK_CONTROL_SIZE = 0x800
                0x0000000000011500                SRAM_AP_BACK_RCODE_ADDR = 0x11500
                0x0000000000000800                SRAM_AP_BACK_RCODE_SIZE = 0x800
                0x0000000000000000                SRAM_AP_BANK_FRONT_CODEC_ADDR = 0x0
                0x0000000000000000                SRAM_AP_BANK_FRONT_CODEC_SIZE = 0x0
                0x0000000000011d00                SRAM_RAM0_RESEVER2_ADDR = 0x11d00
                0x0000000000000800                SRAM_RAM0_RESEVER2_SIZE = 0x800
                0x0000000000012500                SRAM_AP_BANK_FRONT_BASAL_ADDR = 0x12500
                0x0000000000000800                SRAM_AP_BANK_FRONT_BASAL_SIZE = 0x800
                0x0000000000012500                SRAM_AP_BANK_FRONT_ENHANCED_2_ADDR = SRAM_AP_BANK_FRONT_BASAL_ADDR
                0x0000000000000800                SRAM_AP_BANK_FRONT_ENHANCED_2_SIZE = SRAM_AP_BANK_FRONT_BASAL_SIZE
                0x0000000000012d00                SRAM_AP_BANK_BACK_BASAL_ADDR = 0x12d00
                0x0000000000000800                SRAM_AP_BANK_BACK_BASAL_SIZE = 0x800
                0x0000000000012d00                SRAM_AP_BANK_BACK_ENHANCED_1_ADDR = SRAM_AP_BANK_BACK_BASAL_ADDR
                0x0000000000000800                SRAM_AP_BANK_BACK_ENHANCED_1_SIZE = SRAM_AP_BANK_BACK_BASAL_SIZE
                0x0000000000013500                SRAM_AP_BACK_BASAL_RCODE_ADDR = 0x13500
                0x0000000000000800                SRAM_AP_BACK_BASAL_RCODE_SIZE = 0x800
                0x0000000000013d00                SRAM_KERNEL_BSS_ADDR = 0x13d00
                0x00000000000000e0                SRAM_KERNEL_BSS_SIZE = 0xe0
                0x0000000000013de0                SRAM_AP_MANAGER_ADDR = 0x13de0
                0x0000000000000200                SRAM_AP_MANAGER_SIZE = 0x200
                0x0000000000013fc0                SRAM_IRQ_DSP_PRINT_TEMP_ADDR = 0x13fc0
                0x0000000000000020                SRAM_IRQ_DSP_PRINT_TEMP_SIZE = 0x20
                0x0000000000013fe0                SRAM_IRQ_PRINT_BUFFER_ADDR = 0x13fe0
                0x0000000000000110                SRAM_IRQ_PRINT_BUFFER_SIZE = 0x110
                0x00000000000140f0                SRAM_DSP_PRINT_BUFFER_ADDR = 0x140f0
                0x0000000000000110                SRAM_DSP_PRINT_BUFFER_SIZE = 0x110
                0x0000000000014200                SRAM_LCD_DATA_ADDR = 0x14200
                0x0000000000000100                SRAM_LCD_DATA_SIZE = 0x100
                0x0000000000014300                SRAM_KEY_MESSAGE_DATA_ADDR = 0x14300
                0x0000000000000100                SRAM_KEY_MESSAGE_DATA_SIZE = 0x100
                0x0000000000014400                SRAM_AP_BANK_FRONT_UI_ADDR = 0x14400
                0x0000000000000800                SRAM_AP_BANK_FRONT_UI_SIZE = 0x800
                0x0000000000014c00                SRAM_AP_BANK_FRONT_CONTROL_ADDR = 0x14c00
                0x0000000000000800                SRAM_AP_BANK_FRONT_CONTROL_SIZE = 0x800
                0x0000000000015400                SRAM_AP_FRONT_DATA_ADDR = 0x15400
                0x0000000000000800                SRAM_AP_FRONT_DATA_SIZE = 0x800
                0x0000000000015c00                SRAM_AP_BACK_DATA_ADDR = 0x15c00
                0x0000000000000600                SRAM_AP_BACK_DATA_SIZE = 0x600
                0x0000000000016200                SRAM_AP_BANK_MANAGER_ADDR = 0x16200
                0x0000000000000200                SRAM_AP_BANK_MANAGER_SIZE = 0x200
                0x0000000000016400                SRAM_AP_FRONT_RCODE_ADDR = 0x16400
                0x0000000000000800                SRAM_AP_FRONT_RCODE_SIZE = 0x800
                0x0000000000016c00                SRAM_FS_RCODE_ADDR = 0x16c00
                0x0000000000000800                SRAM_FS_RCODE_SIZE = 0x800
                0x0000000000017400                SRAM_UI_RCODE3_ADDR = 0x17400
                0x0000000000000c00                SRAM_UI_RCODE3_SIZE = 0xc00
                0x0000000000017400                SRAM_CARD_UD_RCODE_ADDR = 0x17400
                0x0000000000000c00                SRAM_CARD_UD_RCODE_SIZE = 0xc00
                0x0000000000017400                SRAM_UHOST_UD_RCODE_ADDR = SRAM_CARD_UD_RCODE_ADDR
                0x0000000000000c00                SRAM_UHOST_UD_RCODE_SIZE = SRAM_CARD_UD_RCODE_SIZE
                0x0000000000018000                SRAM_FS_DATA_ADDR = 0x18000
                0x0000000000000300                SRAM_FS_DATA_SIZE = 0x300
                0x0000000000018300                SRAM_FS_BUF_ADDR = 0x18300
                0x0000000000000a00                SRAM_FS_BUF_SIZE = 0xa00
                0x0000000000018d00                SRAM_CARD_UD_CACHE_ADDR = 0x18d00
                0x0000000000000800                SRAM_CARD_UD_CACHE_SIZE = 0x800
                0x0000000000018d00                SRAM_UHOST_UD_CACHE_ADDR = SRAM_CARD_UD_CACHE_ADDR
                0x0000000000000800                SRAM_UHOST_UD_CACHE_SIZE = SRAM_CARD_UD_CACHE_SIZE
                0x0000000000019500                SRAM_CARD_DATA_ADDR = 0x19500
                0x0000000000000080                SRAM_CARD_DATA_SIZE = 0x80
                0x0000000000019500                SRAM_UHOST_DATA_ADDR = SRAM_CARD_DATA_ADDR
                0x0000000000000080                SRAM_UHOST_DATA_SIZE = SRAM_CARD_DATA_SIZE
                0x0000000000019580                SRAM_KERNEL_XSYS_ADDR = 0x19580
                0x0000000000000800                SRAM_KERNEL_XSYS_SIZE = 0x800
                0x0000000000019d80                SRAM_BANK_C_ADDR = 0x19d80
                0x0000000000000400                SRAM_BANK_C_SIZE = 0x400
                0x000000000001a180                SRAM_APPLIB_GLOBAL_DATA_ADDR = 0x1a180
                0x0000000000000100                SRAM_APPLIB_GLOBAL_DATA_SIZE = 0x100
                0x000000000001a280                SRAM_APPLIB_DATA_ADDR = 0x1a280
                0x0000000000000100                SRAM_APPLIB_DATA_SIZE = 0x100
                0x000000000001a380                SRAM_RAM1_RESEVER1_ADDR = 0x1a380
                0x0000000000000080                SRAM_RAM1_RESEVER1_SIZE = 0x80
                0x000000000001a400                SRAM_OS_DATA_ADDR = 0x1a400
                0x0000000000000880                SRAM_OS_DATA_SIZE = 0x880
                0x000000000001ac80                SRAM_OS_HEAP_ADDR = 0x1ac80
                0x0000000000000580                SRAM_OS_HEAP_SIZE = 0x580
                0x000000000001b200                SRAM_AP_BANK_FRONT_ENHANCED_1_ADDR = 0x1b200
                0x0000000000000800                SRAM_AP_BANK_FRONT_ENHANCED_1_SIZE = 0x800
                0x000000000001b200                SRAM_FM_DRV_RCODE_ADDR = SRAM_AP_BANK_FRONT_ENHANCED_1_ADDR
                0x0000000000000800                SRAM_FM_DRV_RCODE_SIZE = SRAM_AP_BANK_FRONT_ENHANCED_1_SIZE
                0x000000000001ba00                SRAM_OS_SD_SWAP_BUF_ADDR = 0x1ba00
                0x0000000000000200                SRAM_OS_SD_SWAP_BUF_SIZE = 0x200
                0x000000000001bc00                SRAM_OS_TASK_STACK_ADDR = 0x1bc00
                0x0000000000001a00                SRAM_OS_TASK_STACK_SIZE = 0x1a00
                0x000000000001d600                SRAM_OS_SYS_STACK_ADDR = 0x1d600
                0x0000000000000400                SRAM_OS_SYS_STACK_SIZE = 0x400
                0x000000000001da00                SRAM_RAM1_RESEVER2_ADDR = 0x1da00
                0x0000000000000600                SRAM_RAM1_RESEVER1_SIZE = 0x600
                0x0000000000027000                SRAM_AP_BACK_CODEC_RCODE_ADDR = 0x27000
                0x0000000000001000                SRAM_AP_BACK_CODEC_RCODE_SIZE = 0x1000
                0x0000000000028000                SRAM_AP_BANK_BACK_CODEC_ADDR = 0x28000
                0x0000000000001000                SRAM_AP_BANK_BACK_CODEC_SIZE = 0x1000
                0x0000000000028000                SRAM_AP_BANK_BACK_ENHANCED_2_ADDR = 0x28000
                0x0000000000000800                SRAM_AP_BANK_BACK_ENHANCED_2_SIZE = 0x800
                0x0000000000030000                SRAM_AP_USB_DEVICE_RCODE_ADDR = 0x30000
                0x0000000000004000                SRAM_AP_USB_DEVICE_RCODE_SIZE = 0x4000
                0x0000000000038000                SRAM_TWI_ADDR_MDY = 0x38000
                0x0000000000000700                SRAM_TWI_SIZE_MDY = SROM_TWI_SIZE_MDY
                0x0000000000040000                SRAM_INVALID_RCODE_ADDR = 0x40000
                0x0000000000000000                AP_INDEX = FRONT_AP
                0x0000000040014c00                BANK_CONTROL_1_ADDR_BASE = ((AP_BANK_FRONT_CONTROL_1 << 0x18) + SRAM_AP_BANK_FRONT_CONTROL_ADDR)
                0x0000000048014400                BANK_UI_1_ADDR_BASE = ((AP_BANK_FRONT_UI_1 << 0x18) + SRAM_AP_BANK_FRONT_UI_ADDR)
                0x000000007801b200                BANK_FRONT_ENHANCED_1_ADDR_BASE = ((AP_BANK_FRONT_ENHANCED_1 << 0x18) + SRAM_AP_BANK_FRONT_ENHANCED_1_ADDR)
                0x0000000071012500                BANK_FRONT_ENHANCED_2_ADDR_BASE = ((AP_BANK_FRONT_ENHANCED_2 << 0x18) + SRAM_AP_BANK_FRONT_ENHANCED_2_ADDR)
                0x000000007a012d00                BANK_BACK_ENHANCED_1_ADDR_BASE = ((AP_BANK_BACK_ENHANCED_1 << 0x18) + SRAM_AP_BANK_BACK_ENHANCED_1_ADDR)
                0x000000007b028000                BANK_BACK_ENHANCED_2_ADDR_BASE = ((AP_BANK_BACK_ENHANCED_2 << 0x18) + SRAM_AP_BANK_BACK_ENHANCED_2_ADDR)
                0x0000000000000800                BANK_CONTROL_SIZE = SRAM_AP_BANK_FRONT_CONTROL_SIZE
                0x0000000000000800                BANK_UI_SIZE = SRAM_AP_BANK_FRONT_UI_SIZE
                0x0000000000000800                BANK_FRONT_ENHANCED1_SIZE = SRAM_AP_BANK_FRONT_ENHANCED_1_SIZE
                0x0000000000000800                BANK_FRONT_ENHANCED2_SIZE = SRAM_AP_BANK_FRONT_ENHANCED_2_SIZE
                0x0000000000000800                BANK_BACK_ENHANCED1_SIZE = SRAM_AP_BANK_BACK_ENHANCED_1_SIZE
                0x0000000000000800                BANK_BACK_ENHANCED2_SIZE = SRAM_AP_BANK_BACK_ENHANCED_2_SIZE
                0x0000000000040000                AP_BANK_SPACE = BANK_SPACE
                0x000000007801b200                . = BANK_FRONT_ENHANCED_1_ADDR_BASE
                0x000000000001b200                OFFSET = (. & 0x3ffff)

BANK_FRONT_ENHANCED_COMM_1_0
                0x000000007801b200      0x72c
 eh_module.o(.text .rodata .xdata)
 .text          0x000000007801b200      0x4f8 ./../../../psp_rel/lib/lib_enhanced/eh_module.o
                0x000000007801b299                set_fileindex
                0x000000007801b219                select_dir_or_dirlist
                0x000000007801b5d1                fsel_exit
                0x000000007801b281                get_fileindex
                0x000000007801b6e1                fsel_get_error
                0x000000007801b2f5                fsel_init
                0x000000007801b2b1                set_dirlist_file_index_tbl
                0x000000007801b2d5                get_dirlist_file_index_tbl
                0x000000007801b201                get_current_disk
 .rodata        0x000000007801b6f8       0x30 ./../../../psp_rel/lib/lib_enhanced/eh_module.o
 .xdata         0x000000007801b728      0x204 ./../../../psp_rel/lib/lib_enhanced/eh_module.o
                0x000000007801b72c                temp_module_buf
LOAD ./../common/common_front.xn
LOAD ./../../../psp_rel/include/link_base.xn
                0x0000000000000000                DRV_GROUP_STG_BASE = 0x0
                0x0000000000000001                DRV_GROUP_STG_CARD = 0x1
                0x0000000000000002                DRV_GROUP_STG_UHOST = 0x2
                0x0000000000000003                DRV_GROUP_FAT32 = 0x3
                0x0000000000000004                DRV_GROUP_EXFAT = 0x4
                0x0000000000000005                DRV_GROUP_UD = 0x5
                0x0000000000000006                DRV_GROUP_UI = 0x6
                0x0000000000000007                DRV_GROUP_LCD = 0x7
                0x0000000000000008                DRV_GROUP_FM = 0x8
                0x0000000000000009                DRV_GROUP_KEY = 0x9
                0x000000000000000a                DRV_GROUP_CCD = 0xa
                0x000000000000000b                DRV_GROUP_I2C = 0xb
                0x000000000000000c                DRV_GROUP_AUDIO_DEVICE = 0xc
                0x000000000000000d                DRV_GROUP_TTS = 0xd
                0x000000000000000e                DRV_GROUP_BT = 0xe
                0x000000000000000f                DRV_GROUP_SYS = 0xf
                0x000000000003ffff                SRAM_SIZE_MASK = 0x3ffff
                0x000000009fc00000                RDATA_ADDR_BASE = 0x9fc00000
                0x00000000bfc00000                RCODE_ADDR_BASE = 0xbfc00000
                0x0000000000000001                KERNEL_BANK_A = 0x1
                0x0000000000000002                KERNEL_BANK_B = 0x2
                0x0000000000000003                KERNEL_BANK_C = 0x3
                0x0000000000040000                BANK_SPACE = 0x40000
                0x0000000000000000                FRONT_AP = 0x0
                0x0000000000000001                BACK_AP = 0x1
                0x0000000000000002                PROCESS_MANAGER_AP = 0x2
                0x0000000000000000                FRONT_CODEC = 0x0
                0x0000000000000001                BACK_CODEC = 0x1
                0x0000000000000040                AP_BANK_FRONT_CONTROL_1 = 0x40
                0x0000000000000048                AP_BANK_FRONT_UI_1 = 0x48
                0x0000000000000050                AP_BANK_FRONT_BASAL = 0x50
                0x0000000000000058                AP_BANK_FRONT_CODEC = 0x58
                0x0000000000000060                AP_BANK_BACK_CONTROL_1 = 0x60
                0x0000000000000068                AP_BANK_BACK_BASAL = 0x68
                0x0000000000000070                AP_BANK_BACK_CODEC = 0x70
                0x0000000000000078                AP_BANK_FRONT_ENHANCED_1 = 0x78
                0x0000000000000071                AP_BANK_FRONT_ENHANCED_2 = 0x71
                0x000000000000007a                AP_BANK_BACK_ENHANCED_1 = 0x7a
                0x000000000000007b                AP_BANK_BACK_ENHANCED_2 = 0x7b
                0x0000000000000072                AP_BANK_BTENGINE_CONTROL_1 = 0x72
                0x0000000000000073                AP_BANK_BTENGINE_LIB_1 = 0x73
                0x0000000000000074                AP_BANK_BTENGINE_LIB_2 = 0x74
                0x0000000000000075                AP_BANK_BTENGINE_EXTEND_1 = 0x75
                0x0000000000000076                AP_BANK_BTENGINE_EXTEND_2 = 0x76
                0x0000000000000077                AP_BANK_BTENGINE_EXTEND_3 = 0x77
                0x000000000000007c                AP_BANK_BTENGINE_EXTEND_4 = 0x7c
                0x0000000000000079                AP_BANK_BTENGINE_EXTEND_5 = 0x79
                0x000000000000007f                AP_BANK_MANAGER = 0x7f
                0x0000000000000041                AP_BANK_AUTOTEST = 0x41
                0x0000000000000000                SROM_BROM_ADDR = 0x0
                0x0000000000002600                SROM_BROM_SIZE = 0x2600
                0x0000000000002600                SROM_SPINOR_ADDR = (SROM_BROM_ADDR + SROM_BROM_SIZE)
                0x0000000000000c00                SROM_SPINOR_SIZE = 0xc00
                0x0000000000003200                SROM_TWI_ADDR = (SROM_SPINOR_ADDR + SROM_SPINOR_SIZE)
                0x0000000000000700                SROM_TWI_SIZE = 0x700
                0x0000000000003900                SROM_STUB_ADDR = (SROM_TWI_ADDR + SROM_TWI_SIZE)
                0x0000000000000700                SROM_STUB_SIZE = 0x700
                0x0000000000000e00                SROM_SPINOR_SIZE_MDY = 0xe00
                0x0000000000003400                SROM_TWI_ADDR_MDY = (SROM_SPINOR_ADDR + SROM_SPINOR_SIZE_MDY)
                0x0000000000000700                SROM_TWI_SIZE_MDY = 0x700
                0x0000000000003b00                SROM_STUB_ADDR_MDY = (SROM_TWI_ADDR_MDY + SROM_TWI_SIZE_MDY)
                0x0000000000000500                SROM_STUB_SIZE_MDY = 0x500
                0x0000000000004000                SROM_KERNEL_ADDR = (SROM_STUB_ADDR + SROM_STUB_SIZE)
                0x0000000000004000                SROM_KERNEL_SIZE = 0x4000
                0x000000000000c000                SROM_FS_ADDR = 0xc000
                0x0000000000001c00                SROM_FS_SIZE = 0x1c00
                0x000000000000dc00                SROM_SPINOR1_ADDR = (SROM_FS_ADDR + SROM_FS_SIZE)
                0x0000000000000400                SROM_SPINOR1_SIZE = 0x400
                0x0000000000008000                SRAM_OS_RCODE_ADDR = 0x8000
                0x0000000000000c00                SRAM_OS_RCODE_SIZE = 0xc00
                0x0000000000008c00                SRAM_SPINOR_RCODE_ADDR = 0x8c00
                0x0000000000000400                SRAM_SPINOR_RCODE_SIZE = 0x400
                0x0000000000009000                SRAM_BANK_A_ADDR = 0x9000
                0x0000000000000400                SRAM_BANK_A_SIZE = 0x400
                0x0000000000009400                SRAM_BANK_B_ADDR = 0x9400
                0x0000000000000800                SRAM_BANK_B_SIZE = 0x800
                0x0000000000009c00                SRAM_UI_RCODE1_ADDR = 0x9c00
                0x0000000000000300                SRAM_UI_RCODE1_SIZE = 0x300
                0x0000000000009f00                SRAM_AUDIO_GLOBAL_DATA_ADDR = 0x9f00
                0x0000000000000060                SRAM_AUDIO_GLOBAL_DATA_SIZE = 0x60
                0x0000000000009f60                SRAM_UHOST_GLOBAL_DATA_ADDR = 0x9f60
                0x0000000000000010                SRAM_UHOST_GLOBAL_DATA_SIZE = 0x10
                0x0000000000009f70                SRAM_CARD_GLOBAL_DATA_ADDR = 0x9f70
                0x0000000000000010                SRAM_CARD_GLOBAL_DATA_SIZE = 0x10
                0x0000000000009f80                SRAM_SYS_SHARE_DATA_ADDR = 0x9f80
                0x0000000000000040                SRAM_SYS_SHARE_DATA_SIZE = 0x40
                0x0000000000009fc0                SRAM_RAM6_CCD_GLOBAL_DATA_ADDR = 0x9fc0
                0x0000000000000020                SRAM_RAM6_CCD_GLOBAL_DATA_SIZE = 0x20
                0x0000000000009fe0                SRAM_RAM6_RESEVER_ADDR = 0x9fe0
                0x0000000000000020                SRAM_RAM6_RESEVER_SIZE = 0x20
                0x000000000000a000                SRAM_LCD_RCODE_ADDR = 0xa000
                0x0000000000000800                SRAM_LCD_RCODE_SIZE = 0x800
                0x000000000000a800                SRAM_UI_RCODE2_ADDR = 0xa800
                0x0000000000001000                SRAM_UI_RCODE2_SIZE = 0x1000
                0x000000000000b800                SRAM_LCD_BUFFER_ADDR = 0xb800
                0x0000000000000400                SRAM_LCD_BUFFER_SIZE = 0x400
                0x000000000000bc00                SRAM_UI_DATA_ADDR = 0xbc00
                0x0000000000000400                SRAM_UI_DATA_SIZE = 0x400
                0x0000000000010000                SRAM_KEY_MESSAGE_RCODE_ADDR = 0x10000
                0x0000000000000a00                SRAM_KEY_MESSAGE_RCODE_SIZE = 0xa00
                0x0000000000010a00                SRAM_RAM0_RESEVER1_ADDR = 0x10a00
                0x0000000000000200                SRAM_RAM0_RESEVER1_SIZE = 0x200
                0x0000000000010c00                SRAM_AP_FRONT_BASAL_RCODE_ADDR = 0x10c00
                0x0000000000000100                SRAM_AP_FRONT_BASAL_RCODE_SIZE = 0x100
                0x0000000000010d00                SRAM_AP_BANK_BACK_CONTROL_ADDR = 0x10d00
                0x0000000000000800                SRAM_AP_BANK_BACK_CONTROL_SIZE = 0x800
                0x0000000000011500                SRAM_AP_BACK_RCODE_ADDR = 0x11500
                0x0000000000000800                SRAM_AP_BACK_RCODE_SIZE = 0x800
                0x0000000000000000                SRAM_AP_BANK_FRONT_CODEC_ADDR = 0x0
                0x0000000000000000                SRAM_AP_BANK_FRONT_CODEC_SIZE = 0x0
                0x0000000000011d00                SRAM_RAM0_RESEVER2_ADDR = 0x11d00
                0x0000000000000800                SRAM_RAM0_RESEVER2_SIZE = 0x800
                0x0000000000012500                SRAM_AP_BANK_FRONT_BASAL_ADDR = 0x12500
                0x0000000000000800                SRAM_AP_BANK_FRONT_BASAL_SIZE = 0x800
                0x0000000000012500                SRAM_AP_BANK_FRONT_ENHANCED_2_ADDR = SRAM_AP_BANK_FRONT_BASAL_ADDR
                0x0000000000000800                SRAM_AP_BANK_FRONT_ENHANCED_2_SIZE = SRAM_AP_BANK_FRONT_BASAL_SIZE
                0x0000000000012d00                SRAM_AP_BANK_BACK_BASAL_ADDR = 0x12d00
                0x0000000000000800                SRAM_AP_BANK_BACK_BASAL_SIZE = 0x800
                0x0000000000012d00                SRAM_AP_BANK_BACK_ENHANCED_1_ADDR = SRAM_AP_BANK_BACK_BASAL_ADDR
                0x0000000000000800                SRAM_AP_BANK_BACK_ENHANCED_1_SIZE = SRAM_AP_BANK_BACK_BASAL_SIZE
                0x0000000000013500                SRAM_AP_BACK_BASAL_RCODE_ADDR = 0x13500
                0x0000000000000800                SRAM_AP_BACK_BASAL_RCODE_SIZE = 0x800
                0x0000000000013d00                SRAM_KERNEL_BSS_ADDR = 0x13d00
                0x00000000000000e0                SRAM_KERNEL_BSS_SIZE = 0xe0
                0x0000000000013de0                SRAM_AP_MANAGER_ADDR = 0x13de0
                0x0000000000000200                SRAM_AP_MANAGER_SIZE = 0x200
                0x0000000000013fc0                SRAM_IRQ_DSP_PRINT_TEMP_ADDR = 0x13fc0
                0x0000000000000020                SRAM_IRQ_DSP_PRINT_TEMP_SIZE = 0x20
                0x0000000000013fe0                SRAM_IRQ_PRINT_BUFFER_ADDR = 0x13fe0
                0x0000000000000110                SRAM_IRQ_PRINT_BUFFER_SIZE = 0x110
                0x00000000000140f0                SRAM_DSP_PRINT_BUFFER_ADDR = 0x140f0
                0x0000000000000110                SRAM_DSP_PRINT_BUFFER_SIZE = 0x110
                0x0000000000014200                SRAM_LCD_DATA_ADDR = 0x14200
                0x0000000000000100                SRAM_LCD_DATA_SIZE = 0x100
                0x0000000000014300                SRAM_KEY_MESSAGE_DATA_ADDR = 0x14300
                0x0000000000000100                SRAM_KEY_MESSAGE_DATA_SIZE = 0x100
                0x0000000000014400                SRAM_AP_BANK_FRONT_UI_ADDR = 0x14400
                0x0000000000000800                SRAM_AP_BANK_FRONT_UI_SIZE = 0x800
                0x0000000000014c00                SRAM_AP_BANK_FRONT_CONTROL_ADDR = 0x14c00
                0x0000000000000800                SRAM_AP_BANK_FRONT_CONTROL_SIZE = 0x800
                0x0000000000015400                SRAM_AP_FRONT_DATA_ADDR = 0x15400
                0x0000000000000800                SRAM_AP_FRONT_DATA_SIZE = 0x800
                0x0000000000015c00                SRAM_AP_BACK_DATA_ADDR = 0x15c00
                0x0000000000000600                SRAM_AP_BACK_DATA_SIZE = 0x600
                0x0000000000016200                SRAM_AP_BANK_MANAGER_ADDR = 0x16200
                0x0000000000000200                SRAM_AP_BANK_MANAGER_SIZE = 0x200
                0x0000000000016400                SRAM_AP_FRONT_RCODE_ADDR = 0x16400
                0x0000000000000800                SRAM_AP_FRONT_RCODE_SIZE = 0x800
                0x0000000000016c00                SRAM_FS_RCODE_ADDR = 0x16c00
                0x0000000000000800                SRAM_FS_RCODE_SIZE = 0x800
                0x0000000000017400                SRAM_UI_RCODE3_ADDR = 0x17400
                0x0000000000000c00                SRAM_UI_RCODE3_SIZE = 0xc00
                0x0000000000017400                SRAM_CARD_UD_RCODE_ADDR = 0x17400
                0x0000000000000c00                SRAM_CARD_UD_RCODE_SIZE = 0xc00
                0x0000000000017400                SRAM_UHOST_UD_RCODE_ADDR = SRAM_CARD_UD_RCODE_ADDR
                0x0000000000000c00                SRAM_UHOST_UD_RCODE_SIZE = SRAM_CARD_UD_RCODE_SIZE
                0x0000000000018000                SRAM_FS_DATA_ADDR = 0x18000
                0x0000000000000300                SRAM_FS_DATA_SIZE = 0x300
                0x0000000000018300                SRAM_FS_BUF_ADDR = 0x18300
                0x0000000000000a00                SRAM_FS_BUF_SIZE = 0xa00
                0x0000000000018d00                SRAM_CARD_UD_CACHE_ADDR = 0x18d00
                0x0000000000000800                SRAM_CARD_UD_CACHE_SIZE = 0x800
                0x0000000000018d00                SRAM_UHOST_UD_CACHE_ADDR = SRAM_CARD_UD_CACHE_ADDR
                0x0000000000000800                SRAM_UHOST_UD_CACHE_SIZE = SRAM_CARD_UD_CACHE_SIZE
                0x0000000000019500                SRAM_CARD_DATA_ADDR = 0x19500
                0x0000000000000080                SRAM_CARD_DATA_SIZE = 0x80
                0x0000000000019500                SRAM_UHOST_DATA_ADDR = SRAM_CARD_DATA_ADDR
                0x0000000000000080                SRAM_UHOST_DATA_SIZE = SRAM_CARD_DATA_SIZE
                0x0000000000019580                SRAM_KERNEL_XSYS_ADDR = 0x19580
                0x0000000000000800                SRAM_KERNEL_XSYS_SIZE = 0x800
                0x0000000000019d80                SRAM_BANK_C_ADDR = 0x19d80
                0x0000000000000400                SRAM_BANK_C_SIZE = 0x400
                0x000000000001a180                SRAM_APPLIB_GLOBAL_DATA_ADDR = 0x1a180
                0x0000000000000100                SRAM_APPLIB_GLOBAL_DATA_SIZE = 0x100
                0x000000000001a280                SRAM_APPLIB_DATA_ADDR = 0x1a280
                0x0000000000000100                SRAM_APPLIB_DATA_SIZE = 0x100
                0x000000000001a380                SRAM_RAM1_RESEVER1_ADDR = 0x1a380
                0x0000000000000080                SRAM_RAM1_RESEVER1_SIZE = 0x80
                0x000000000001a400                SRAM_OS_DATA_ADDR = 0x1a400
                0x0000000000000880                SRAM_OS_DATA_SIZE = 0x880
                0x000000000001ac80                SRAM_OS_HEAP_ADDR = 0x1ac80
                0x0000000000000580                SRAM_OS_HEAP_SIZE = 0x580
                0x000000000001b200                SRAM_AP_BANK_FRONT_ENHANCED_1_ADDR = 0x1b200
                0x0000000000000800                SRAM_AP_BANK_FRONT_ENHANCED_1_SIZE = 0x800
                0x000000000001b200                SRAM_FM_DRV_RCODE_ADDR = SRAM_AP_BANK_FRONT_ENHANCED_1_ADDR
                0x0000000000000800                SRAM_FM_DRV_RCODE_SIZE = SRAM_AP_BANK_FRONT_ENHANCED_1_SIZE
                0x000000000001ba00                SRAM_OS_SD_SWAP_BUF_ADDR = 0x1ba00
                0x0000000000000200                SRAM_OS_SD_SWAP_BUF_SIZE = 0x200
                0x000000000001bc00                SRAM_OS_TASK_STACK_ADDR = 0x1bc00
                0x0000000000001a00                SRAM_OS_TASK_STACK_SIZE = 0x1a00
                0x000000000001d600                SRAM_OS_SYS_STACK_ADDR = 0x1d600
                0x0000000000000400                SRAM_OS_SYS_STACK_SIZE = 0x400
                0x000000000001da00                SRAM_RAM1_RESEVER2_ADDR = 0x1da00
                0x0000000000000600                SRAM_RAM1_RESEVER1_SIZE = 0x600
                0x0000000000027000                SRAM_AP_BACK_CODEC_RCODE_ADDR = 0x27000
                0x0000000000001000                SRAM_AP_BACK_CODEC_RCODE_SIZE = 0x1000
                0x0000000000028000                SRAM_AP_BANK_BACK_CODEC_ADDR = 0x28000
                0x0000000000001000                SRAM_AP_BANK_BACK_CODEC_SIZE = 0x1000
                0x0000000000028000                SRAM_AP_BANK_BACK_ENHANCED_2_ADDR = 0x28000
                0x0000000000000800                SRAM_AP_BANK_BACK_ENHANCED_2_SIZE = 0x800
                0x0000000000030000                SRAM_AP_USB_DEVICE_RCODE_ADDR = 0x30000
                0x0000000000004000                SRAM_AP_USB_DEVICE_RCODE_SIZE = 0x4000
                0x0000000000038000                SRAM_TWI_ADDR_MDY = 0x38000
                0x0000000000000700                SRAM_TWI_SIZE_MDY = SROM_TWI_SIZE_MDY
                0x0000000000040000                SRAM_INVALID_RCODE_ADDR = 0x40000
                0x0000000000016400                SRAM_TEXT_ADDR = SRAM_AP_FRONT_RCODE_ADDR
                0x0000000000015400                SRAM_DATA_ADDR = SRAM_AP_FRONT_DATA_ADDR
                0x00000000bfc16400                RCODE_TEXT_ADDR = (RCODE_ADDR_BASE + SRAM_TEXT_ADDR)
                0x000000009fc15400                RDATA_DATA_ADDR = (RDATA_ADDR_BASE + SRAM_DATA_ADDR)
                0x0000000040014c00                BANK_CONTROL_1_ADDR_BASE = ((AP_BANK_FRONT_CONTROL_1 << 0x18) + SRAM_AP_BANK_FRONT_CONTROL_ADDR)
                0x0000000048014400                BANK_UI_1_ADDR_BASE = ((AP_BANK_FRONT_UI_1 << 0x18) + SRAM_AP_BANK_FRONT_UI_ADDR)
                0x0000000000000800                BANK_CONTROL_SIZE = SRAM_AP_BANK_FRONT_CONTROL_SIZE
                0x0000000000000800                BANK_UI_SIZE = SRAM_AP_BANK_FRONT_UI_SIZE
                0x0000000000000600                BANK_UI_RESERVE_SIZE = (SRAM_AP_BANK_FRONT_UI_SIZE - 0x200)
                0x0000000000040000                AP_BANK_SPACE = BANK_SPACE
LOAD ./../../../psp_rel/lib/api.a
OUTPUT(music.exe elf32-tradlittlemips)
                0x0000000078054400                . = (((. + AP_BANK_SPACE) & ~ ((AP_BANK_SPACE - 0x1))) + OFFSET)

BANK_FRONT_ENHANCED_FUNC_1_0
                0x000000007805b200      0x4d0
 eh_change_location.o(.text .rodata .xdata)
 .text          0x000000007805b200      0x298 ./../../../psp_rel/lib/lib_enhanced/eh_change_location.o
                0x000000007805b2dd                chg_get_object_index
                0x000000007805b371                fsel_change_filepath
                0x000000007805b265                chg_read_tree_data
 .rodata        0x000000007805b498       0x30 ./../../../psp_rel/lib/lib_enhanced/eh_change_location.o
 .xdata         0x000000007805b4c8      0x208 ./../../../psp_rel/lib/lib_enhanced/eh_change_location.o
                0x000000007805b4d0                change_temp_buffer
                0x000000007805b4cc                change_file_total
                0x000000007805b4c8                change_object_handle
                0x0000000078094400                . = (((. + AP_BANK_SPACE) & ~ ((AP_BANK_SPACE - 0x1))) + OFFSET)

BANK_FRONT_ENHANCED_FUNC_1_1
                0x000000007809b200      0x794
 eh_fav_operation.o(.text .rodata .xdata)
 .text          0x000000007809b200      0x578 ./../../../psp_rel/lib/lib_enhanced/eh_fav_operation.o
                0x000000007809b721                fsel_favorite_get_total
                0x000000007809b239                fav_opt_read_data
                0x000000007809b201                fav_opt_close_userpl
                0x000000007809b505                fsel_favorite_clear
                0x000000007809b329                fsel_favorite_add
                0x000000007809b2dd                fav_opt_read_file
                0x000000007809b645                fsel_favorite_delete
 .xdata         0x000000007809b778      0x21c ./../../../psp_rel/lib/lib_enhanced/eh_fav_operation.o
                0x000000007809b97c                fav_opt_user_pl_p
                0x000000007809b980                fav_opt_user_pl_head
                0x000000007809b990                fav_opt_existfile
                0x000000007809b992                fav_obj_open_mode
                0x00000000780d4400                . = (((. + AP_BANK_SPACE) & ~ ((AP_BANK_SPACE - 0x1))) + OFFSET)

BANK_FRONT_ENHANCED_FUNC_1_2
                0x00000000780db200      0x51c
 eh_change_fav_location.o(.text .rodata .xdata)
 .text          0x00000000780db200      0x2d8 ./../../../psp_rel/lib/lib_enhanced/eh_change_fav_location.o
                0x00000000780db2e1                fsel_change_fav_location
 .rodata        0x00000000780db4d8       0x44 ./../../../psp_rel/lib/lib_enhanced/eh_change_fav_location.o
 .xdata         0x00000000780db51c      0x200 ./../../../psp_rel/lib/lib_enhanced/eh_change_fav_location.o
                0x0000000078114400                . = (((. + AP_BANK_SPACE) & ~ ((AP_BANK_SPACE - 0x1))) + OFFSET)

BANK_FRONT_ENHANCED_FUNC_1_3
                0x000000007811b200      0x800
 eh_make_listlayer.o(.text .rodata .xdata)
 .text          0x000000007811b200      0x204 ./../../../psp_rel/lib/lib_enhanced/eh_make_listlayer.o
                0x000000007811b2f1                fsel_make_plistlayer
                0x000000007811b265                makelyr_read_tree_data
 .rodata        0x000000007811b404       0x30 ./../../../psp_rel/lib/lib_enhanced/eh_make_listlayer.o
 .xdata         0x000000007811b434      0x208 ./../../../psp_rel/lib/lib_enhanced/eh_make_listlayer.o
                0x000000007811b434                makelayer_object_handle
                0x000000007811b438                makelayer_temp_buffer
                0x0000000000000800                . = BANK_FRONT_ENHANCED1_SIZE
 *fill*         0x000000007811b63c      0x3c4 00
                0x0000000078154400                . = (((. + AP_BANK_SPACE) & ~ ((AP_BANK_SPACE - 0x1))) + OFFSET)

BANK_FRONT_ENHANCED_BS_1_0
                0x000000007815b200      0x614
 eh_bs_entry.o(.text .rodata .xdata)
 .text          0x000000007815b200      0x3b4 ./../../../psp_rel/lib/lib_enhanced/eh_bs_entry.o
                0x000000007815b201                fsel_browser_enter_dir
                0x000000007815b2c5                fsel_browser_delete
                0x000000007815b4f5                bs_read_sector_data
                0x000000007815b22d                fsel_browser_get_items
                0x000000007815b47d                bs_dir_function
                0x000000007815b2f9                fsel_browser_get_location
                0x000000007815b28d                fsel_browser_select
                0x000000007815b4b9                bs_dir_set_dirpos
                0x000000007815b365                fsel_browser_modify_location
                0x000000007815b335                fsel_browser_set_location
                0x000000007815b265                fsel_browser_get_albums
                0x000000007815b4f1                bs_read_sector_vram
                0x000000007815b455                fsel_browser_set_file
 .rodata        0x000000007815b5b4       0x60 ./../../../psp_rel/lib/lib_enhanced/eh_bs_entry.o
 .xdata         0x000000007815b614      0x200 ./../../../psp_rel/lib/lib_enhanced/eh_bs_entry.o
                0x000000007815b614                bs_temp_buf
                0x0000000078194400                . = (((. + AP_BANK_SPACE) & ~ ((AP_BANK_SPACE - 0x1))) + OFFSET)

BANK_FRONT_ENHANCED_BS_1_1
                0x000000007819b200      0x71c
 eh_bs_function.o(.text .rodata .xdata)
 .text          0x000000007819b200      0x4bc ./../../../psp_rel/lib/lib_enhanced/eh_bs_function.o
                0x000000007819b625                bs_open_other
                0x000000007819b3f9                bs_open_object
                0x000000007819b201                bs_close_object
 .rodata        0x000000007819b6bc       0x60 ./../../../psp_rel/lib/lib_enhanced/eh_bs_function.o
 .xdata         0x000000007819b71c      0x200 ./../../../psp_rel/lib/lib_enhanced/eh_bs_function.o
                0x000000007819b71c                bs_function_buf
                0x00000000781d4400                . = (((. + AP_BANK_SPACE) & ~ ((AP_BANK_SPACE - 0x1))) + OFFSET)

BANK_FRONT_ENHANCED_ID3_1_0
                0x00000000781db200      0x7b0
 eh_id3_entry.o(.text .rodata .xdata)
 .text          0x00000000781db200      0x474 ./../../../psp_rel/lib/lib_enhanced/eh_id3_entry.o
                0x00000000781db379                get_init
                0x00000000781db631                get_id3_mp3
                0x00000000781db201                get_id3_info
                0x00000000781db5b9                str_to_capital
                0x00000000781db50d                reset_file_pos
                0x00000000781db3c1                read_buf_data
 .rodata        0x00000000781db674       0x20 ./../../../psp_rel/lib/lib_enhanced/eh_id3_entry.o
 .xdata         0x00000000781db694      0x2a8 ./../../../psp_rel/lib/lib_enhanced/eh_id3_entry.o
                0x00000000781db934                id3_info_p
                0x00000000781db939                mp3_v1_forbidden
                0x00000000781db89c                key_buf
                0x00000000781db69c                id3_temp_buf
                0x00000000781db930                id3_save_p
                0x00000000781db928                id3_pos_buffer
                0x00000000781db920                check_flag
                0x00000000781db92c                id3_pos_file
                0x00000000781db694                id3_save_buf
                0x00000000781db938                m4a_rkn_flg
                0x00000000781db91c                check_count
 eh_id3_aac.o(.text .rodata .xdata)
 .text          0x00000000781db93c       0x74 ./../../../psp_rel/lib/lib_enhanced/eh_id3_aac.o
                0x00000000781db93d                get_id3_aac
                0x0000000078214400                . = (((. + AP_BANK_SPACE) & ~ ((AP_BANK_SPACE - 0x1))) + OFFSET)

BANK_FRONT_ENHANCED_ID3_1_1
                0x000000007821b200      0x554
 eh_id3_function.o(.text .rodata .xdata)
 .text          0x000000007821b200      0x490 ./../../../psp_rel/lib/lib_enhanced/eh_id3_function.o
                0x000000007821b5b9                check_id3_buffer
 .rodata        0x000000007821b690       0x64 ./../../../psp_rel/lib/lib_enhanced/eh_id3_function.o
 .xdata         0x000000007821b6f4       0x60 ./../../../psp_rel/lib/lib_enhanced/eh_id3_function.o
                0x0000000078254400                . = (((. + AP_BANK_SPACE) & ~ ((AP_BANK_SPACE - 0x1))) + OFFSET)

BANK_FRONT_ENHANCED_LRC_1_0
                0x000000007825b200      0x7c0
 eh_lyric_get.o(.text .rodata .xdata)
 .text          0x000000007825b200      0x5b8 ./../../../psp_rel/lib/lib_enhanced/eh_lyric_get.o
                0x000000007825b565                lyric_check_query_time
                0x000000007825b4ed                lyric_get_time
                0x000000007825b59d                lyric_seek_for
                0x000000007825b261                get_lrc_byno
                0x000000007825b42d                lyric_get_next
                0x000000007825b201                lyric_get_init
                0x000000007825b491                lyric_get_prev
                0x000000007825b6a5                get_num_bytime
 .xdata         0x000000007825b7b8      0x208 ./../../../psp_rel/lib/lib_enhanced/eh_lyric_get.o
                0x0000000078294400                . = (((. + AP_BANK_SPACE) & ~ ((AP_BANK_SPACE - 0x1))) + OFFSET)

BANK_FRONT_ENHANCED_FSEL_1_0
                0x000000007829b200      0x800
 eh_fsel_entry.o(.text .rodata .xdata)
 .text          0x000000007829b200      0x3a4 ./../../../psp_rel/lib/lib_enhanced/eh_fsel_entry.o
                0x000000007829b229                fsel_get_prevfile
                0x000000007829b33d                fsel_set_location
                0x000000007829b42d                init_fsel_sysdata
                0x000000007829b3fd                fsel_enter_dir
                0x000000007829b3cd                fsel_get_prevdir
                0x000000007829b289                fsel_get_total
                0x000000007829b2c9                fsel_get_fileno
                0x000000007829b251                fsel_get_byno
                0x000000007829b39d                fsel_get_nextdir
                0x000000007829b36d                fsel_get_location
                0x000000007829b201                fsel_get_nextfile
                0x000000007829b2dd                fsel_set_mode
                0x000000007829b485                fsel_set_typebit
                0x000000007829b4e1                fsel_read_sector_data
 .rodata        0x000000007829b5a4       0x50 ./../../../psp_rel/lib/lib_enhanced/eh_fsel_entry.o
 .xdata         0x000000007829b5f4      0x254 ./../../../psp_rel/lib/lib_enhanced/eh_fsel_entry.o
                0x000000007829b5f4                fsel_temp_buf
                0x000000007829b7f4                pdir_layer_buffer
                0x000000007829b840                pfile_offset_buffer
                0x0000000000000800                . = BANK_FRONT_ENHANCED1_SIZE
 *fill*         0x000000007829b848      0x1b8 00
                0x00000000782d4400                . = (((. + AP_BANK_SPACE) & ~ ((AP_BANK_SPACE - 0x1))) + OFFSET)

BANK_FRONT_ENHANCED_FSEL_1_1
                0x00000000782db200      0x800
 eh_fsel_function.o(.text .rodata .xdata)
 .text          0x00000000782db200      0x550 ./../../../psp_rel/lib/lib_enhanced/eh_fsel_function.o
                0x00000000782db705                fsel_close_object
                0x00000000782db471                fsel_open_object
 .rodata        0x00000000782db750       0x60 ./../../../psp_rel/lib/lib_enhanced/eh_fsel_function.o
 .xdata         0x00000000782db7b0      0x200 ./../../../psp_rel/lib/lib_enhanced/eh_fsel_function.o
                0x0000000000000800                . = BANK_FRONT_ENHANCED1_SIZE
 *fill*         0x00000000782db9b0       0x50 00
                0x0000000078314400                . = (((. + AP_BANK_SPACE) & ~ ((AP_BANK_SPACE - 0x1))) + OFFSET)

BANK_FRONT_ENHANCED_CUE_1_0
                0x000000007831b200      0x800
 eh_cue_load.o(.text .rodata .xdata)
 .text          0x000000007831b200      0x2a8 ./../../../psp_rel/lib/lib_enhanced/eh_cue_load.o
                0x000000007831b3dd                cue_open
                0x000000007831b349                cue_read_string
                0x000000007831b299                cue_seek_keyword
                0x000000007831b465                cue_close
                0x000000007831b201                cue_read_page_data
 .xdata         0x000000007831b4a8      0x21c ./../../../psp_rel/lib/lib_enhanced/eh_cue_load.o
                0x000000007831b6bc                p_buf_point
                0x000000007831b6b4                cue_pos_file
                0x000000007831b6b8                cue_file_len
                0x000000007831b4b0                cue_temp_buf
                0x000000007831b4ac                cue_ape_total
                0x000000007831b4a8                cue_handle
                0x000000007831b6b0                cue_pos_buffer
                0x000000007831b6c0                cue_ape_fileno
                0x0000000000000800                . = BANK_FRONT_ENHANCED1_SIZE
 *fill*         0x000000007831b6c4      0x33c 00
                0x0000000071012500                . = BANK_FRONT_ENHANCED_2_ADDR_BASE
                0x0000000000012500                OFFSET = (. & 0x3ffff)

BANK_FRONT_ENHANCED_COMM_2_0
                0x0000000071012500      0x6c8
 eh_module_sub.o(.text .rodata .xdata)
 .text          0x0000000071012500      0x620 ./../../../psp_rel/lib/lib_enhanced/eh_module_sub.o
                0x0000000071012951                mod_open_playlist
                0x00000000710125f9                mod_open_userpl
 .rodata        0x0000000071012b20       0xa8 ./../../../psp_rel/lib/lib_enhanced/eh_module_sub.o
                0x0000000071054400                . = (((. + AP_BANK_SPACE) & ~ ((AP_BANK_SPACE - 0x1))) + OFFSET)

BANK_FRONT_ENHANCED_FUNC_2_0
                0x0000000071052500      0x334
 eh_fav_operation_sub.o(.text .rodata .xdata)
 .text          0x0000000071052500      0x310 ./../../../psp_rel/lib/lib_enhanced/eh_fav_operation_sub.o
                0x00000000710525ed                fav_opt_set_pos
                0x0000000071052501                fav_opt_judge_exist
                0x00000000710525a1                fav_opt_update_head
                0x0000000071052681                fav_opt_delete_sub
 .rodata        0x0000000071052810       0x24 ./../../../psp_rel/lib/lib_enhanced/eh_fav_operation_sub.o
                0x0000000071094400                . = (((. + AP_BANK_SPACE) & ~ ((AP_BANK_SPACE - 0x1))) + OFFSET)

BANK_FRONT_ENHANCED_FUNC_2_1
                0x0000000071092500      0x59c
 eh_change_location_sub.o(.text .rodata .xdata)
 .text          0x0000000071092500      0x578 ./../../../psp_rel/lib/lib_enhanced/eh_change_location_sub.o
                0x0000000071092501                chg_change_filepath_sub
 .xdata         0x0000000071092a78       0x24 ./../../../psp_rel/lib/lib_enhanced/eh_change_location_sub.o
                0x00000000710d4400                . = (((. + AP_BANK_SPACE) & ~ ((AP_BANK_SPACE - 0x1))) + OFFSET)

BANK_FRONT_ENHANCED_FUNC_2_2
                0x00000000710d2500      0x4f4
 eh_fav_operation_sub2.o(.text .rodata .xdata)
 .text          0x00000000710d2500      0x4ac ./../../../psp_rel/lib/lib_enhanced/eh_fav_operation_sub2.o
                0x00000000710d25f9                fav_opt_open_userpl_vram
                0x00000000710d2611                fav_opt_open_userpl
 .rodata        0x00000000710d29ac       0x48 ./../../../psp_rel/lib/lib_enhanced/eh_fav_operation_sub2.o
                0x0000000071114400                . = (((. + AP_BANK_SPACE) & ~ ((AP_BANK_SPACE - 0x1))) + OFFSET)

BANK_FRONT_ENHANCED_FUNC_2_3
                0x0000000071112500      0x800
 eh_make_listlayer_sub.o(.text .rodata .xdata)
 .text          0x0000000071112500      0x250 ./../../../psp_rel/lib/lib_enhanced/eh_make_listlayer_sub.o
                0x0000000071112501                makelyr_listlayer_info
 .xdata         0x0000000071112750       0x1c ./../../../psp_rel/lib/lib_enhanced/eh_make_listlayer_sub.o
                0x0000000000000800                . = BANK_FRONT_ENHANCED2_SIZE
 *fill*         0x000000007111276c      0x594 00
                0x0000000071154400                . = (((. + AP_BANK_SPACE) & ~ ((AP_BANK_SPACE - 0x1))) + OFFSET)

BANK_FRONT_ENHANCED_BS_2_0
                0x0000000071152500      0x700
 eh_bs_directory.o(.text .rodata .xdata)
 .text          0x0000000071152500      0x6f8 ./../../../psp_rel/lib/lib_enhanced/eh_bs_directory.o
                0x0000000071152951                bs_dir_get_location
                0x0000000071152a85                fsel_browser_scanfile
                0x0000000071152815                bs_dir_set_location
                0x0000000071152bad                fsel_browser_scanfile_init
                0x00000000711525dd                bs_dir_enter
 .rodata        0x0000000071152bf8        0x8 ./../../../psp_rel/lib/lib_enhanced/eh_bs_directory.o
                0x0000000071194400                . = (((. + AP_BANK_SPACE) & ~ ((AP_BANK_SPACE - 0x1))) + OFFSET)

BANK_FRONT_ENHANCED_BS_2_1
                0x0000000071192500      0x704
 eh_bs_directory_func.o(.text .rodata .xdata)
 .text          0x0000000071192500      0x684 ./../../../psp_rel/lib/lib_enhanced/eh_bs_directory_func.o
                0x0000000071192501                bs_dir_delete
                0x0000000071192a75                bs_dir_set_file
                0x0000000071192ab1                deal_if_83name
                0x0000000071192821                bs_dir_get_items
 .rodata        0x0000000071192b84       0x80 ./../../../psp_rel/lib/lib_enhanced/eh_bs_directory_func.o
                0x00000000711d4400                . = (((. + AP_BANK_SPACE) & ~ ((AP_BANK_SPACE - 0x1))) + OFFSET)

BANK_FRONT_ENHANCED_BS_2_2
                0x00000000711d2500      0x4c4
 eh_bs_favorite.o(.text .rodata .xdata)
 .text          0x00000000711d2500      0x4bc ./../../../psp_rel/lib/lib_enhanced/eh_bs_favorite.o
                0x00000000711d25f5                bs_uspl_enter
                0x00000000711d2659                bs_uspl_get_items
                0x00000000711d27b1                bs_uspl_set_location
                0x00000000711d28f5                bs_uspl_get_location
 .xdata         0x00000000711d29bc        0x8 ./../../../psp_rel/lib/lib_enhanced/eh_bs_favorite.o
                0x0000000071214400                . = (((. + AP_BANK_SPACE) & ~ ((AP_BANK_SPACE - 0x1))) + OFFSET)

BANK_FRONT_ENHANCED_BS_2_3
                0x0000000071212500      0x570
 eh_bs_favorite_func.o(.text .rodata .xdata)
 .text          0x0000000071212500      0x56c ./../../../psp_rel/lib/lib_enhanced/eh_bs_favorite_func.o
                0x0000000071212a31                bs_uspl_set_file
                0x000000007121269d                bs_uspl_delete_func
                0x00000000712128ad                bs_uspl_delete
 .xdata         0x0000000071212a6c        0x4 ./../../../psp_rel/lib/lib_enhanced/eh_bs_favorite_func.o
                0x0000000071254400                . = (((. + AP_BANK_SPACE) & ~ ((AP_BANK_SPACE - 0x1))) + OFFSET)

BANK_FRONT_ENHANCED_BS_2_4
                0x0000000071252500      0x674
 eh_bs_playlist.o(.text .rodata .xdata)
 .text          0x0000000071252500      0x674 ./../../../psp_rel/lib/lib_enhanced/eh_bs_playlist.o
                0x0000000071252501                bs_get_file_index_byno
                0x000000007125267d                bs_get_tree_info_byno
                0x0000000071252581                bs_get_file_info
                0x0000000071252889                bs_plist_get_location
                0x000000007125264d                bs_get_object_index
                0x0000000071252621                bs_read_tree_data
                0x00000000712526e1                bs_plist_get_items
                0x00000000712525b9                bs_get_display_info
                0x0000000071294400                . = (((. + AP_BANK_SPACE) & ~ ((AP_BANK_SPACE - 0x1))) + OFFSET)

BANK_FRONT_ENHANCED_BS_2_5
                0x0000000071292500      0x680
 eh_bs_playlist_func.o(.text .rodata .xdata)
 .text          0x0000000071292500      0x680 ./../../../psp_rel/lib/lib_enhanced/eh_bs_playlist_func.o
                0x0000000071292501                bs_get_item_info
                0x00000000712929a9                bs_plist_delete
                0x0000000071292b59                bs_plist_set_file
                0x0000000071292821                bs_plist_set_location
                0x00000000712925ad                bs_plist_enter
                0x00000000712d4400                . = (((. + AP_BANK_SPACE) & ~ ((AP_BANK_SPACE - 0x1))) + OFFSET)

BANK_FRONT_ENHANCED_BS_2_6
                0x00000000712d2500      0x674
 eh_bs_playlist_del.o(.text .rodata .xdata)
 .text          0x00000000712d2500      0x658 ./../../../psp_rel/lib/lib_enhanced/eh_bs_playlist_del.o
                0x00000000712d2565                bs_plist_read_tree_data
                0x00000000712d2a9d                bs_plist_delete_func
 .xdata         0x00000000712d2b58       0x1c ./../../../psp_rel/lib/lib_enhanced/eh_bs_playlist_del.o
                0x0000000071314400                . = (((. + AP_BANK_SPACE) & ~ ((AP_BANK_SPACE - 0x1))) + OFFSET)

BANK_FRONT_ENHANCED_BS_2_7
                0x0000000071312500      0x358
 eh_bs_other_deal.o(.text .rodata .xdata)
 .text          0x0000000071312500      0x14c ./../../../psp_rel/lib/lib_enhanced/eh_bs_other_deal.o
                0x0000000071312591                bs_del_ebookbmk
 .rodata        0x000000007131264c        0xc ./../../../psp_rel/lib/lib_enhanced/eh_bs_other_deal.o
 .xdata         0x0000000071312658      0x200 ./../../../psp_rel/lib/lib_enhanced/eh_bs_other_deal.o
                0x0000000071354400                . = (((. + AP_BANK_SPACE) & ~ ((AP_BANK_SPACE - 0x1))) + OFFSET)

BANK_FRONT_ENHANCED_BS_2_8
                0x0000000071352500      0x6cc
 eh_bs_playlist2.o(.text .rodata .xdata)
 .text          0x0000000071352500      0x6b4 ./../../../psp_rel/lib/lib_enhanced/eh_bs_playlist2.o
                0x0000000071352b19                bs_m3ufile_delete_func
                0x0000000071352725                bs_plist_get_albums
 .rodata        0x0000000071352bb4       0x18 ./../../../psp_rel/lib/lib_enhanced/eh_bs_playlist2.o
                0x0000000071394400                . = (((. + AP_BANK_SPACE) & ~ ((AP_BANK_SPACE - 0x1))) + OFFSET)

BANK_FRONT_ENHANCED_BS_2_9
                0x0000000071392500        0xc
 eh_bs_function_sub.o(.text .rodata .xdata)
 .text          0x0000000071392500        0xc ./../../../psp_rel/lib/lib_enhanced/eh_bs_function_sub.o
                0x00000000713d4400                . = (((. + AP_BANK_SPACE) & ~ ((AP_BANK_SPACE - 0x1))) + OFFSET)

BANK_FRONT_ENHANCED_BS_2_10
                0x00000000713d2500      0x800
 eh_bs_browser.o(.text .rodata .xdata)
 .text          0x00000000713d2500      0x7c8 ./../../../psp_rel/lib/lib_enhanced/eh_bs_browser.o
                0x00000000713d2aa1                bs_dirlist_set_location
                0x00000000713d2bd1                bs_dirlist_get_location
                0x00000000713d27e1                bs_dirlist_enter
 .rodata        0x00000000713d2cc8        0x8 ./../../../psp_rel/lib/lib_enhanced/eh_bs_browser.o
 .xdata         0x00000000713d2cd0        0x8 ./../../../psp_rel/lib/lib_enhanced/eh_bs_browser.o
                0x0000000000000800                . = BANK_FRONT_ENHANCED2_SIZE
 *fill*         0x00000000713d2cd8       0x28 00
                0x0000000071414400                . = (((. + AP_BANK_SPACE) & ~ ((AP_BANK_SPACE - 0x1))) + OFFSET)

BANK_FRONT_ENHANCED_BS_2_11
                0x0000000071412500      0x800
 eh_bs_browser_func.o(.text .rodata .xdata)
 .text          0x0000000071412500      0x584 ./../../../psp_rel/lib/lib_enhanced/eh_bs_browser_func.o
                0x0000000071412a49                bs_dirlist_set_file
                0x0000000071412645                bs_dirlist_delete
                0x0000000071412965                bs_dirlist_get_items
 .rodata        0x0000000071412a84       0x80 ./../../../psp_rel/lib/lib_enhanced/eh_bs_browser_func.o
                0x0000000000000800                . = BANK_FRONT_ENHANCED2_SIZE
 *fill*         0x0000000071412b04      0x1fc 00
                0x0000000071454400                . = (((. + AP_BANK_SPACE) & ~ ((AP_BANK_SPACE - 0x1))) + OFFSET)

BANK_FRONT_ENHANCED_ID3_2_0
                0x0000000071452500      0x7d8
 eh_id3_mp3_v1.o(.text .rodata .xdata)
 .text          0x0000000071452500      0x23c ./../../../psp_rel/lib/lib_enhanced/eh_id3_mp3_v1.o
                0x00000000714525b1                mp3_v1_parse
                0x0000000071452501                mp3_select_genre
 .rodata        0x000000007145273c      0x59c ./../../../psp_rel/lib/lib_enhanced/eh_id3_mp3_v1.o
                0x0000000071494400                . = (((. + AP_BANK_SPACE) & ~ ((AP_BANK_SPACE - 0x1))) + OFFSET)

BANK_FRONT_ENHANCED_ID3_2_1
                0x0000000071492500      0x768
 eh_id3_mp3_v2.o(.text .rodata .xdata)
 .text          0x0000000071492500      0x730 ./../../../psp_rel/lib/lib_enhanced/eh_id3_mp3_v2.o
                0x0000000071492a9d                mp3_v2_parse
                0x00000000714925ad                mp3_v2_2_parse
                0x00000000714927dd                mp3_v2_x_parse
                0x0000000071492b65                check_genre_string
 .rodata        0x0000000071492c30       0x38 ./../../../psp_rel/lib/lib_enhanced/eh_id3_mp3_v2.o
                0x00000000714d4400                . = (((. + AP_BANK_SPACE) & ~ ((AP_BANK_SPACE - 0x1))) + OFFSET)

BANK_FRONT_ENHANCED_ID3_2_2
                0x00000000714d2500      0x7f8
 eh_id3_wma.o(.text .rodata .xdata)
 .text          0x00000000714d2500      0x718 ./../../../psp_rel/lib/lib_enhanced/eh_id3_wma.o
                0x00000000714d2501                get_id3_wma
 .rodata        0x00000000714d2c18       0xd4 ./../../../psp_rel/lib/lib_enhanced/eh_id3_wma.o
 .xdata         0x00000000714d2cec        0xc ./../../../psp_rel/lib/lib_enhanced/eh_id3_wma.o
                0x0000000071514400                . = (((. + AP_BANK_SPACE) & ~ ((AP_BANK_SPACE - 0x1))) + OFFSET)

BANK_FRONT_ENHANCED_ID3_2_3
                0x0000000071512500      0x668
 eh_id3_ape.o(.text .rodata .xdata)
 .text          0x0000000071512500      0x61c ./../../../psp_rel/lib/lib_enhanced/eh_id3_ape.o
                0x00000000715126fd                ape_check_tag
                0x0000000071512a8d                get_id3_ape
                0x00000000715127b1                ape_v2_parse
 .rodata        0x0000000071512b1c       0x40 ./../../../psp_rel/lib/lib_enhanced/eh_id3_ape.o
 .xdata         0x0000000071512b5c        0xc ./../../../psp_rel/lib/lib_enhanced/eh_id3_ape.o
                0x0000000071554400                . = (((. + AP_BANK_SPACE) & ~ ((AP_BANK_SPACE - 0x1))) + OFFSET)

BANK_FRONT_ENHANCED_ID3_2_4
                0x0000000071552500      0x454
 eh_id3_flac.o(.text .rodata .xdata)
 .text          0x0000000071552500      0x3e8 ./../../../psp_rel/lib/lib_enhanced/eh_id3_flac.o
                0x00000000715525b9                get_id3_flac
 .rodata        0x00000000715528e8       0x6c ./../../../psp_rel/lib/lib_enhanced/eh_id3_flac.o
                0x0000000071594400                . = (((. + AP_BANK_SPACE) & ~ ((AP_BANK_SPACE - 0x1))) + OFFSET)

BANK_FRONT_ENHANCED_ID3_2_5
                0x0000000071592500      0x41c
 eh_id3_ogg.o(.text .rodata .xdata)
 .text          0x0000000071592500      0x3e8 ./../../../psp_rel/lib/lib_enhanced/eh_id3_ogg.o
                0x0000000071592841                get_id3_ogg
                0x00000000715926b5                ogg_search_key
                0x0000000071592501                IsTextUTF8
                0x00000000715925c5                ogg_get_items
 .rodata        0x00000000715928e8       0x34 ./../../../psp_rel/lib/lib_enhanced/eh_id3_ogg.o
                0x00000000715d4400                . = (((. + AP_BANK_SPACE) & ~ ((AP_BANK_SPACE - 0x1))) + OFFSET)

BANK_FRONT_ENHANCED_ID3_2_6
                0x00000000715d2500      0x4ac
 eh_id3_aa.o(.text .rodata .xdata)
 .text          0x00000000715d2500      0x48c ./../../../psp_rel/lib/lib_enhanced/eh_id3_aa.o
                0x00000000715d25e5                aa_check_tag
                0x00000000715d2799                get_id3_aa
                0x00000000715d2501                aa_find_tag
 .rodata        0x00000000715d298c       0x20 ./../../../psp_rel/lib/lib_enhanced/eh_id3_aa.o
                0x0000000071614400                . = (((. + AP_BANK_SPACE) & ~ ((AP_BANK_SPACE - 0x1))) + OFFSET)

BANK_FRONT_ENHANCED_ID3_2_7
                0x0000000071612500      0x6d0
 eh_id3_aax.o(.text .rodata .xdata)
 .text          0x0000000071612500      0x66c ./../../../psp_rel/lib/lib_enhanced/eh_id3_aax.o
                0x0000000071612955                get_id3_aax
                0x000000007161265d                get_id3_aax_sub
 .rodata        0x0000000071612b6c       0x64 ./../../../psp_rel/lib/lib_enhanced/eh_id3_aax.o
                0x0000000071654400                . = (((. + AP_BANK_SPACE) & ~ ((AP_BANK_SPACE - 0x1))) + OFFSET)

BANK_FRONT_ENHANCED_ID3_2_8
                0x0000000071652500        0xc
 eh_id3_function_sub.o(.text .rodata .xdata)
 .text          0x0000000071652500        0xc ./../../../psp_rel/lib/lib_enhanced/eh_id3_function_sub.o
                0x0000000071694400                . = (((. + AP_BANK_SPACE) & ~ ((AP_BANK_SPACE - 0x1))) + OFFSET)

BANK_FRONT_ENHANCED_ID3_2_9
                0x0000000071692500      0x800
 eh_id3_utf8_deal.o(.text .rodata .xdata)
 .text          0x0000000071692500      0x22c ./../../../psp_rel/lib/lib_enhanced/eh_id3_utf8_deal.o
                0x0000000071692645                id3_read_utf8_deal
 .xdata         0x000000007169272c      0x100 ./../../../psp_rel/lib/lib_enhanced/eh_id3_utf8_deal.o
                0x0000000000000800                . = BANK_FRONT_ENHANCED2_SIZE
 *fill*         0x000000007169282c      0x4d4 00
                0x00000000716d4400                . = (((. + AP_BANK_SPACE) & ~ ((AP_BANK_SPACE - 0x1))) + OFFSET)

BANK_FRONT_ENHANCED_FSEL_2_0
                0x00000000716d2500      0x800
 eh_fsel_directory_next.o(.text .rodata .xdata)
 .text          0x00000000716d2500      0x740 ./../../../psp_rel/lib/lib_enhanced/eh_fsel_directory_next.o
                0x00000000716d2b1d                dir_set_location
                0x00000000716d2a95                dir_get_location
                0x00000000716d2501                dir_get_next
                0x00000000716d28b1                total_file_cur
                0x0000000000000800                . = BANK_FRONT_ENHANCED2_SIZE
 *fill*         0x00000000716d2c40       0xc0 00
                0x0000000071714400                . = (((. + AP_BANK_SPACE) & ~ ((AP_BANK_SPACE - 0x1))) + OFFSET)

BANK_FRONT_ENHANCED_FSEL_2_1
                0x0000000071712500      0x800
 eh_fsel_directory_prev.o(.text .rodata .xdata)
 .text          0x0000000071712500      0x450 ./../../../psp_rel/lib/lib_enhanced/eh_fsel_directory_prev.o
                0x0000000071712501                dir_get_prev
                0x0000000000000800                . = BANK_FRONT_ENHANCED2_SIZE
 *fill*         0x0000000071712950      0x3b0 00
                0x0000000071754400                . = (((. + AP_BANK_SPACE) & ~ ((AP_BANK_SPACE - 0x1))) + OFFSET)

BANK_FRONT_ENHANCED_FSEL_2_2
                0x0000000071752500      0x800
 eh_fsel_directory_func.o(.text .rodata .xdata)
 .text          0x0000000071752500      0x374 ./../../../psp_rel/lib/lib_enhanced/eh_fsel_directory_func.o
                0x0000000071752709                dir_get_byno
                0x00000000717525dd                dir_del_one
                0x0000000071752501                dir_enter_dir
                0x0000000071752629                dir_next_dir
                0x0000000071752699                dir_prev_dir
                0x0000000000000800                . = BANK_FRONT_ENHANCED2_SIZE
 *fill*         0x0000000071752874      0x48c 00
                0x0000000071794400                . = (((. + AP_BANK_SPACE) & ~ ((AP_BANK_SPACE - 0x1))) + OFFSET)

BANK_FRONT_ENHANCED_FSEL_2_3
                0x0000000071792500      0x800
 eh_fsel_favorite_sel.o(.text .rodata .xdata)
 .text          0x0000000071792500      0x7bc ./../../../psp_rel/lib/lib_enhanced/eh_fsel_favorite_sel.o
                0x0000000071792745                userpl_set_location
                0x0000000071792701                userpl_get_byno
                0x0000000071792501                userpl_get_next
                0x0000000071792601                userpl_get_prev
                0x00000000717928ad                userpl_get_location
 .xdata         0x0000000071792cbc        0x8 ./../../../psp_rel/lib/lib_enhanced/eh_fsel_favorite_sel.o
                0x0000000000000800                . = BANK_FRONT_ENHANCED2_SIZE
 *fill*         0x0000000071792cc4       0x3c 00
                0x00000000717d4400                . = (((. + AP_BANK_SPACE) & ~ ((AP_BANK_SPACE - 0x1))) + OFFSET)

BANK_FRONT_ENHANCED_FSEL_2_4
                0x00000000717d2500      0x800
 eh_fsel_favorite_func.o(.text .rodata .xdata)
 .text          0x00000000717d2500       0x10 ./../../../psp_rel/lib/lib_enhanced/eh_fsel_favorite_func.o
                0x00000000717d2501                userpl_del_one
                0x0000000000000800                . = BANK_FRONT_ENHANCED2_SIZE
 *fill*         0x00000000717d2510      0x7f0 00
                0x0000000071814400                . = (((. + AP_BANK_SPACE) & ~ ((AP_BANK_SPACE - 0x1))) + OFFSET)

BANK_FRONT_ENHANCED_FSEL_2_5
                0x0000000071812500      0x800
 eh_fsel_shuffle.o(.text .rodata .xdata)
 .text          0x0000000071812500      0x748 ./../../../psp_rel/lib/lib_enhanced/eh_fsel_shuffle.o
                0x000000007181258d                init_shuffle
                0x0000000071812b59                shuffle_prev_file
                0x0000000071812a69                shuffle_next_file
 .rodata        0x0000000071812c48       0x10 ./../../../psp_rel/lib/lib_enhanced/eh_fsel_shuffle.o
                0x0000000000000800                . = BANK_FRONT_ENHANCED2_SIZE
 *fill*         0x0000000071812c58       0xa8 00
                0x0000000071854400                . = (((. + AP_BANK_SPACE) & ~ ((AP_BANK_SPACE - 0x1))) + OFFSET)

BANK_FRONT_ENHANCED_FSEL_2_6
                0x0000000071852500      0x800
 eh_fsel_playlist_sel.o(.text .rodata .xdata)
 .text          0x0000000071852500      0x5b8 ./../../../psp_rel/lib/lib_enhanced/eh_fsel_playlist_sel.o
                0x0000000071852501                plist_get_next
                0x00000000718526e1                plist_get_byno
                0x00000000718525f1                plist_get_prev
                0x0000000071852a61                plist_get_fileNo_byIndex
                0x0000000000000800                . = BANK_FRONT_ENHANCED2_SIZE
 *fill*         0x0000000071852ab8      0x248 00
                0x0000000071894400                . = (((. + AP_BANK_SPACE) & ~ ((AP_BANK_SPACE - 0x1))) + OFFSET)

BANK_FRONT_ENHANCED_FSEL_2_7
                0x0000000071892500      0x800
 eh_fsel_playlist_func.o(.text .rodata .xdata)
 .text          0x0000000071892500      0x51c ./../../../psp_rel/lib/lib_enhanced/eh_fsel_playlist_func.o
                0x0000000071892619                plist_get_location
                0x00000000718926b9                plist_set_location
                0x00000000718929ed                plist_del_one
                0x0000000000000800                . = BANK_FRONT_ENHANCED2_SIZE
 *fill*         0x0000000071892a1c      0x2e4 00
                0x00000000718d4400                . = (((. + AP_BANK_SPACE) & ~ ((AP_BANK_SPACE - 0x1))) + OFFSET)

BANK_FRONT_ENHANCED_FSEL_2_8
                0x00000000718d2500      0x800
 eh_fsel_playlist_del.o(.text .rodata .xdata)
 .text          0x00000000718d2500        0xc ./../../../psp_rel/lib/lib_enhanced/eh_fsel_playlist_del.o
                0x0000000000000800                . = BANK_FRONT_ENHANCED2_SIZE
 *fill*         0x00000000718d250c      0x7f4 00
                0x0000000071914400                . = (((. + AP_BANK_SPACE) & ~ ((AP_BANK_SPACE - 0x1))) + OFFSET)

BANK_FRONT_ENHANCED_FSEL_2_9
                0x0000000071912500      0x800
 eh_fsel_shuffle2.o(.text .rodata .xdata)
 .text          0x0000000071912500        0xc ./../../../psp_rel/lib/lib_enhanced/eh_fsel_shuffle2.o
                0x0000000000000800                . = BANK_FRONT_ENHANCED2_SIZE
 *fill*         0x000000007191250c      0x7f4 00
                0x0000000071954400                . = (((. + AP_BANK_SPACE) & ~ ((AP_BANK_SPACE - 0x1))) + OFFSET)

BANK_FRONT_ENHANCED_FSEL_2_10
                0x0000000071952500      0x800
 eh_fsel_function_sub.o(.text .rodata .xdata)
 .text          0x0000000071952500        0xc ./../../../psp_rel/lib/lib_enhanced/eh_fsel_function_sub.o
                0x0000000000000800                . = BANK_FRONT_ENHANCED2_SIZE
 *fill*         0x000000007195250c      0x7f4 00
                0x0000000071994400                . = (((. + AP_BANK_SPACE) & ~ ((AP_BANK_SPACE - 0x1))) + OFFSET)

BANK_FRONT_ENHANCED_FSEL_2_11
                0x0000000071992500      0x800
 eh_fsel_browser_prev.o(.text .rodata .xdata)
 .text          0x0000000071992500      0x688 ./../../../psp_rel/lib/lib_enhanced/eh_fsel_browser_prev.o
                0x0000000071992501                dirlist_get_prev
                0x0000000000000800                . = BANK_FRONT_ENHANCED2_SIZE
 *fill*         0x0000000071992b88      0x178 00

BANK_FRONT_ENHANCED_FSEL_2_12
                0x0000000071992d00      0x800
 eh_fsel_browser_next.o(.text .rodata .xdata)
 .text          0x0000000071992d00      0x7a0 ./../../../psp_rel/lib/lib_enhanced/eh_fsel_browser_next.o
                0x0000000071992d01                dirlist_get_next
                0x00000000719932b1                dirlist_get_location
                0x0000000071993339                dirlist_set_location
                0x0000000000000800                . = BANK_FRONT_ENHANCED2_SIZE
 *fill*         0x00000000719934a0       0x60 00

BANK_FRONT_ENHANCED_FSEL_2_13
                0x0000000071993500      0x800
 eh_fsel_browser_function.o(.text .rodata .xdata)
 .text          0x0000000071993500      0x638 ./../../../psp_rel/lib/lib_enhanced/eh_fsel_browser_function.o
                0x000000007199383d                dirlist_next_dir
                0x00000000719938ad                dirlist_prev_dir
                0x0000000071993501                fsel_dir_function
                0x000000007199391d                dirlist_get_byno
                0x00000000719935f5                dirlist_set_file_position
                0x0000000071993801                dirlist_read_file_info
                0x00000000719936d5                dirlist_del_one
                0x0000000071993645                fsellist_get_file_index_by_no
                0x0000000071993a95                last_song_in_folder
                0x0000000071993721                dirlist_get_file_byno
                0x0000000071993551                dirlist_deal_file_open_objective
                0x0000000071993599                fsel_dir_set_dirpos
 .xdata         0x0000000071993b38        0xc ./../../../psp_rel/lib/lib_enhanced/eh_fsel_browser_function.o
                0x0000000071993b38                file_location_bs
                0x0000000000000800                . = BANK_FRONT_ENHANCED2_SIZE
 *fill*         0x0000000071993b44      0x1bc 00
                0x00000000719d4400                . = (((. + AP_BANK_SPACE) & ~ ((AP_BANK_SPACE - 0x1))) + OFFSET)

BANK_FRONT_ENHANCED_CUE_2_0
                0x00000000719d2500      0x800
 eh_cue_load_sub1.o(.text .rodata .xdata)
 .text          0x00000000719d2500      0x274 ./../../../psp_rel/lib/lib_enhanced/eh_cue_load_sub1.o
                0x00000000719d2729                cue_len_sting
                0x00000000719d2591                open_cue_file
                0x00000000719d2501                explain_cue_init
                0x00000000719d2559                cue_get_total
 .rodata        0x00000000719d2774       0x24 ./../../../psp_rel/lib/lib_enhanced/eh_cue_load_sub1.o
                0x00000000719d278c                cue_ext_unicode_lower
                0x00000000719d2774                cue_ext
                0x00000000719d2778                cue_track
                0x00000000719d2780                cue_ext_unicode_upper
 .xdata         0x00000000719d2798       0x54 ./../../../psp_rel/lib/lib_enhanced/eh_cue_load_sub1.o
                0x0000000000000800                . = BANK_FRONT_ENHANCED2_SIZE
 *fill*         0x00000000719d27ec      0x514 00
                0x0000000071a14400                . = (((. + AP_BANK_SPACE) & ~ ((AP_BANK_SPACE - 0x1))) + OFFSET)

BANK_FRONT_ENHANCED_CUE_2_1
                0x0000000071a12500      0x800
 eh_cue_load_sub2.o(.text .rodata .xdata)
 .text          0x0000000071a12500      0x350 ./../../../psp_rel/lib/lib_enhanced/eh_cue_load_sub2.o
                0x0000000071a12501                ape_getinfo_byno
 .rodata        0x0000000071a12850       0x34 ./../../../psp_rel/lib/lib_enhanced/eh_cue_load_sub2.o
                0x0000000071a12878                PERFORMER
                0x0000000071a12858                TRACK
                0x0000000071a1286c                INDEX01
                0x0000000071a12850                TALB
                0x0000000071a12860                TITLE
                0x0000000000000800                . = BANK_FRONT_ENHANCED2_SIZE
 *fill*         0x0000000071a12884      0x47c 00
                0x0000000040cd4c00                XDATA_BASE = (BANK_CONTROL_1_ADDR_BASE + (AP_BANK_SPACE * 0x33))

.XDATA_BANK_CONTROL_1_51
                0x0000000040cd4c00      0x200
 ui_directory.o(.xdata)
 .xdata         0x0000000040cd4c00      0x200 ./../../lib/ui_directory.o
                0x0000000040cd4d90                listbox_data
                0x0000000040cd4c00                g_list_buffer
                0x0000000040cd4e00                . = 0x200
                0x0000000000000600                DIRECTORY_SIZE = (BANK_CONTROL_SIZE - 0x200)
                0x0000000048414400                XDATA_BASE = (BANK_UI_1_ADDR_BASE + (AP_BANK_SPACE * 0x10))

.XDATA_BANK_UI_STR_BUFFER
                0x0000000048414400      0x200
 common_ui_data.o(.xdata)
 .xdata         0x0000000048414400      0x1c8 ./../../lib/common_ui_data.o
                0x00000000484144c0                com_name_buffer
                0x00000000484145b0                g_aufm_temp
                0x00000000484144f4                g_alarm_temp
                0x0000000048414400                com_str_buffer
                0x0000000048414600                . = 0x200
 *fill*         0x00000000484145c8       0x38 00
                0x0000000040c14c00                . = (BANK_CONTROL_1_ADDR_BASE + (AP_BANK_SPACE * 0x30))
                0x0000000000014c00                OFFSET = (. & 0x3ffff)

BANK_CONTROL_1_48
                0x0000000040c14c00      0x800
 ui_menulist.o(.text .rodata .xdata)
 .text          0x0000000040c14c00      0x4a8 ./../../lib/ui_menulist.o
                0x0000000040c14f31                menulist_msg_deal
                0x0000000040c14c01                gui_menulist
                0x0000000040c15045                load_confmenu_item_data
 .xdata         0x0000000040c150a8       0x70 ./../../lib/ui_menulist.o
                0x0000000000000800                . = BANK_CONTROL_SIZE
 *fill*         0x0000000040c15118      0x2e8 00
                0x0000000040c54400                . = (((. + AP_BANK_SPACE) & ~ ((AP_BANK_SPACE - 0x1))) + OFFSET)

BANK_CONTROL_1_49
                0x0000000040c54c00      0x800
 ui_menulist2.o(.text .rodata .xdata)
 .text          0x0000000040c54c00      0x780 ./../../lib/ui_menulist2.o
                0x0000000040c55069                re_redraw_currentdir
                0x0000000040c54ecd                re_enter_currentdir
                0x0000000040c54d89                load_confmenu_title_data
                0x0000000040c54c8d                init_menulist_param
                0x0000000040c55171                read_history_item_menu
                0x0000000040c54db9                enter_newest_menulist
                0x0000000040c55119                write_history_item_menu
                0x0000000040c55255                init_ml_control
                0x0000000040c54d11                load_conf_title
                0x0000000040c55219                read_next_layer_history
 .xdata         0x0000000040c55380       0x70 ./../../lib/ui_menulist2.o
                0x0000000000000800                . = BANK_CONTROL_SIZE
 *fill*         0x0000000040c553f0       0x10 00
                0x0000000040c94400                . = (((. + AP_BANK_SPACE) & ~ ((AP_BANK_SPACE - 0x1))) + OFFSET)

BANK_CONTROL_1_50
                0x0000000040c94c00      0x800
 ui_menulist_simple.o(.text .rodata .xdata)
 .text          0x0000000040c94c00      0x4e8 ./../../lib/ui_menulist_simple.o
                0x0000000040c94c01                menulist_simple_msg_deal
                0x0000000040c94d99                gui_menulist_simple
 .xdata         0x0000000040c950e8       0x70 ./../../lib/ui_menulist_simple.o
                0x0000000000000800                . = BANK_CONTROL_SIZE
 *fill*         0x0000000040c95158      0x2a8 00
                0x0000000040cd4600                . = ((((. + AP_BANK_SPACE) & ~ ((AP_BANK_SPACE - 0x1))) + OFFSET) + 0x200)

BANK_CONTROL_1_51
                0x0000000040cd4e00      0x600
 ui_directory.o(.text .rodata)
 .text          0x0000000040cd4e00      0x5e0 ./../../lib/ui_directory.o
                0x0000000040cd51fd                load_dir_item_data
                0x0000000040cd50a1                directory_msg_deal
                0x0000000040cd5385                get_dir_menu_item
                0x0000000040cd52c1                update_decode_param
                0x0000000040cd5335                match_list_menu
                0x0000000040cd5169                load_dir_title_data
                0x0000000040cd4e01                gui_directory
                0x0000000000000600                . = DIRECTORY_SIZE
 *fill*         0x0000000040cd53e0       0x20 00
                0x0000000040d14600                . = ((((. + AP_BANK_SPACE) & ~ ((AP_BANK_SPACE - 0x1))) + OFFSET) + 0x200)

BANK_CONTROL_1_52
                0x0000000040d14e00      0x600
 ui_directory2.o(.text .rodata .xdata)
 .text          0x0000000040d14e00      0x53c ./../../lib/ui_directory2.o
                0x0000000040d14e81                update_dir_control_after_del
                0x0000000040d14e01                dir_file_type
                0x0000000040d15021                directory_msg_deal_gui
                0x0000000040d14f15                directory_option_deal
                0x0000000040d15311                get_dir_menu_item_func
 .rodata        0x0000000040d1533c       0xac ./../../lib/ui_directory2.o
                0x0000000040d1533c                ext_vec_rom
                0x0000000040d153dc                result_vec
                0x0000000040d153bc                bitmap_vec
                0x0000000000000600                . = DIRECTORY_SIZE
 *fill*         0x0000000040d153e8       0x18 00
                0x0000000040d54400                . = (((. + AP_BANK_SPACE) & ~ ((AP_BANK_SPACE - 0x1))) + OFFSET)

BANK_CONTROL_1_53
                0x0000000040d54c00      0x800
 ui_parameter.o(.text .rodata .xdata)
 .text          0x0000000040d54c00      0x598 ./../../lib/ui_parameter.o
                0x0000000040d54d81                parambox_msg_deal
                0x0000000040d54c01                parambox_value_inc
                0x0000000040d54f2d                gui_set_parameter
                0x0000000040d54cc1                parambox_value_dec
                0x0000000000000800                . = BANK_CONTROL_SIZE
 *fill*         0x0000000040d55198      0x268 00
                0x0000000040d94400                . = (((. + AP_BANK_SPACE) & ~ ((AP_BANK_SPACE - 0x1))) + OFFSET)

BANK_CONTROL_1_54
                0x0000000040d94c00      0x800
 ui_textread.o(.text .rodata .xdata)
 .text          0x0000000040d94c00      0x4b0 ./../../lib/ui_textread.o
                0x0000000040d94d85                gui_text_read
                0x0000000040d94c01                textread_msg_deal
 .xdata         0x0000000040d950b0      0x2a0 ./../../lib/ui_textread.o
                0x0000000040d950f2                g_file_offset_bk
                0x0000000040d95338                text_file
                0x0000000040d950f6                g_need_draw
                0x0000000040d950f4                g_page_index
                0x0000000040d950f8                text_decode
                0x0000000040d950f0                g_file_offset
                0x0000000040d950f5                g_text_end_flag
                0x0000000040d950b0                g_offset_history
                0x0000000000000800                . = BANK_CONTROL_SIZE
 *fill*         0x0000000040d95350       0xb0 00
                0x0000000040dd4400                . = (((. + AP_BANK_SPACE) & ~ ((AP_BANK_SPACE - 0x1))) + OFFSET)

BANK_CONTROL_1_55
                0x0000000040dd4c00      0x800
 setting_comval.o(.text .rodata .xdata)
 .text          0x0000000040dd4c00      0x1cc ./../../lib/setting_comval.o
                0x0000000040dd4d21                com_get_default_dae
                0x0000000040dd4c01                com_get_default_setting
 common_setdae_init.o(.text .rodata .xdata)
 .text          0x0000000040dd4dcc      0x27c ./../../lib/common_setdae_init.o
                0x0000000040dd4dcd                com_inner_load_mdrc_param
                0x0000000040dd4f11                com_load_mdrc_config
                0x0000000040dd4fa9                com_reset_dae_config
                0x0000000040dd4ff5                com_init_dae_config
                0x0000000000000800                . = BANK_CONTROL_SIZE
 *fill*         0x0000000040dd5048      0x3b8 00
                0x0000000048414400                . = (BANK_UI_1_ADDR_BASE + (AP_BANK_SPACE * 0x10))
                0x0000000000014400                OFFSET = (. & 0x3ffff)
                0x0000000048414600                . = (. + 0x200)

BANK_UI_1_16    0x0000000048414600      0x600
 app_manager_bank.o(.text .rodata .xdata)
 .text          0x0000000048414600      0x1c4 ./../../lib/app_manager_bank.o
                0x0000000048414601                applib_init
                0x00000000484146f9                applib_quit
                0x0000000000000600                . = BANK_UI_RESERVE_SIZE
 *fill*         0x00000000484147c4      0x43c 00
                0x0000000048454600                . = ((((. + AP_BANK_SPACE) & ~ ((AP_BANK_SPACE - 0x1))) + OFFSET) + 0x200)

BANK_UI_1_17    0x0000000048454600      0x600
 app_timer_bank.o(.text .rodata .xdata)
 .text          0x0000000048454600      0x1ac ./../../lib/app_timer_bank.o
                0x00000000484546f5                restart_app_timer
                0x0000000048454601                set_app_timer
                0x0000000048454679                modify_app_timer
                0x000000004845473d                kill_app_timer
                0x00000000484546c5                stop_app_timer
                0x000000004845476d                init_app_timers
 ui_headbar.o(.text .rodata .xdata)
 .text          0x00000000484547ac      0x448 ./../../lib/ui_headbar.o
                0x00000000484547ad                gui_set_headbar_mode
                0x0000000048454869                gui_headbar
                0x0000000048454841                gui_get_headbar_mode
                0x0000000000000600                . = BANK_UI_RESERVE_SIZE
 *fill*         0x0000000048454bf4        0xc 00
                0x0000000048494600                . = ((((. + AP_BANK_SPACE) & ~ ((AP_BANK_SPACE - 0x1))) + OFFSET) + 0x200)

BANK_UI_1_18    0x0000000048494600      0x600
 message_bank_init.o(.text .rodata .xdata)
 .text          0x0000000048494600       0x40 ./../../lib/message_bank_init.o
                0x0000000048494601                applib_message_init
 message_bank_send.o(.text .rodata .xdata)
 .text          0x0000000048494640      0x170 ./../../lib/message_bank_send.o
                0x0000000048494679                send_sync_msg
                0x0000000048494759                send_async_msg
                0x0000000048494799                reply_sync_msg
 message_bank_broadcast.o(.text .rodata .xdata)
 .text          0x00000000484947b0       0x74 ./../../lib/message_bank_broadcast.o
                0x00000000484947e9                broadcast_msg_sys
                0x00000000484947b1                broadcast_msg
                0x0000000000000600                . = BANK_UI_RESERVE_SIZE
 *fill*         0x0000000048494824      0x3dc 00
                0x00000000484d4600                . = ((((. + AP_BANK_SPACE) & ~ ((AP_BANK_SPACE - 0x1))) + OFFSET) + 0x200)

BANK_UI_1_19    0x00000000484d4600      0x600
                0x0000000000000600                . = BANK_UI_RESERVE_SIZE
 *fill*         0x00000000484d4600      0x600 00
                0x0000000048514600                . = ((((. + AP_BANK_SPACE) & ~ ((AP_BANK_SPACE - 0x1))) + OFFSET) + 0x200)

BANK_UI_1_20    0x0000000048514600      0x600
 common_config.o(.text .rodata .xdata)
 .text          0x0000000048514600      0x11c ./../../lib/common_config.o
                0x00000000485146bd                com_get_config_default
                0x0000000048514601                com_open_config_file
                0x000000004851464d                com_get_config_struct
                0x0000000000000600                . = BANK_UI_RESERVE_SIZE
 *fill*         0x000000004851471c      0x4e4 00
                0x0000000048554600                . = ((((. + AP_BANK_SPACE) & ~ ((AP_BANK_SPACE - 0x1))) + OFFSET) + 0x200)

BANK_UI_1_21    0x0000000048554600      0x600
 common_msgmap_data.o(.text .rodata .xdata)
 .rodata        0x0000000048554600      0x1ac ./../../lib/common_msgmap_data.o
                0x00000000485546d8                textread_key_map_list
                0x000000004855466c                keylock_list
                0x000000004855475c                limit_key_map_list
                0x0000000048554788                key_shortcut_list
                0x0000000048554684                menulist_key_map_list
                0x00000000485546f8                usbconnect_key_map_list
                0x0000000048554618                dialog_key_map_list
                0x00000000485546cc                shutoff_key_map_list
                0x0000000048554730                volume_key_map_list
                0x00000000485546a8                parameter_key_map_list
                0x0000000048554600                delete_key_map_list
                0x000000004855463c                directory_key_map_list
 common_msgmap.o(.text .rodata .xdata)
 .text          0x00000000485547ac       0xb4 ./../../lib/common_msgmap.o
                0x00000000485547ad                com_key_mapping
                0x0000000000000600                . = BANK_UI_RESERVE_SIZE
 *fill*         0x0000000048554860      0x3a0 00
                0x0000000048594400                . = (((. + AP_BANK_SPACE) & ~ ((AP_BANK_SPACE - 0x1))) + OFFSET)

BANK_UI_1_22    0x0000000048594400      0x800
 common_confmenu.o(.text .rodata .xdata)
 .text          0x0000000048594400      0x2c0 ./../../lib/common_confmenu.o
                0x0000000048594511                com_get_confmenu_item
                0x0000000048594575                com_get_confmenu_active
                0x0000000048594401                com_open_confmenu_file
                0x000000004859446d                com_close_confmenu_file
                0x0000000048594611                com_get_menu_active
                0x00000000485944a9                com_get_confmenu_title
                0x0000000000000800                . = BANK_UI_SIZE
 *fill*         0x00000000485946c0      0x540 00
                0x00000000485d4400                . = (((. + AP_BANK_SPACE) & ~ ((AP_BANK_SPACE - 0x1))) + OFFSET)

BANK_UI_1_23    0x00000000485d4400      0x800
 common_history.o(.text .rodata .xdata)
 .text          0x00000000485d4400      0x4d4 ./../../lib/common_history.o
                0x00000000485d4401                com_get_history_item
                0x00000000485d47c1                com_clear_app_history
                0x00000000485d455d                com_set_history_item
                0x00000000485d45d9                com_update_path_history
                0x00000000485d4735                com_clear_all_history
 .xdata         0x00000000485d48d4      0x200 ./../../lib/common_history.o
                0x00000000485d48d4                history_buf
                0x0000000000000800                . = BANK_UI_SIZE
 *fill*         0x00000000485d4ad4      0x12c 00
                0x0000000048614600                . = ((((. + AP_BANK_SPACE) & ~ ((AP_BANK_SPACE - 0x1))) + OFFSET) + 0x200)

BANK_UI_1_24    0x0000000048614600      0x600
 common_string.o(.text .rodata .xdata)
 .text          0x0000000048614600      0x498 ./../../lib/common_string.o
                0x0000000048614601                com_string_format
 .xdata         0x0000000048614a98      0x140 ./../../lib/common_string.o
                0x0000000048614a98                pattern_buf
                0x0000000048614b58                sub_buf
                0x0000000000000600                . = BANK_UI_RESERVE_SIZE
 *fill*         0x0000000048614bd8       0x28 00
                0x0000000048654600                . = ((((. + AP_BANK_SPACE) & ~ ((AP_BANK_SPACE - 0x1))) + OFFSET) + 0x200)

BANK_UI_1_25    0x0000000048654600      0x600
 common_string2.o(.text .rodata .xdata)
 .text          0x0000000048654600      0x468 ./../../lib/common_string2.o
                0x0000000048654695                com_ansi_to_unicode
                0x0000000048654885                com_dump_debug
                0x0000000048654721                com_ellipsis_to_longname
                0x0000000048654601                com_dot_to_shortname
                0x00000000486547bd                itoa_hex
 .xdata         0x0000000048654a68       0x34 ./../../lib/common_string2.o
                0x0000000048654a68                tmp_buffer
                0x0000000000000600                . = BANK_UI_RESERVE_SIZE
 *fill*         0x0000000048654a9c      0x164 00
                0x0000000048694600                . = ((((. + AP_BANK_SPACE) & ~ ((AP_BANK_SPACE - 0x1))) + OFFSET) + 0x200)

BANK_UI_1_26    0x0000000048694600      0x600
 common_key.o(.text .rodata .xdata)
 .text          0x0000000048694600      0x298 ./../../lib/common_key.o
                0x0000000048694601                com_gui_msg_hook
                0x000000004869487d                com_filter_key_hold
 common_msg.o(.text .rodata .xdata)
 .text          0x0000000048694898      0x2e4 ./../../lib/common_msg.o
                0x0000000048694899                com_app_msg_hook
                0x0000000000000600                . = BANK_UI_RESERVE_SIZE
 *fill*         0x0000000048694b7c       0x84 00
                0x00000000486d4600                . = ((((. + AP_BANK_SPACE) & ~ ((AP_BANK_SPACE - 0x1))) + OFFSET) + 0x200)

BANK_UI_1_27    0x00000000486d4600      0x600
 common_sound.o(.text .rodata .xdata)
 .text          0x00000000486d4600      0x444 ./../../lib/common_sound.o
                0x00000000486d4601                com_set_sound_keytone
                0x00000000486d4761                com_set_sound_volume
                0x00000000486d483d                com_set_sound_out
                0x00000000486d49d9                com_set_sound_record
                0x0000000000000600                . = BANK_UI_RESERVE_SIZE
 *fill*         0x00000000486d4a44      0x1bc 00
                0x0000000048714400                . = (((. + AP_BANK_SPACE) & ~ ((AP_BANK_SPACE - 0x1))) + OFFSET)

BANK_UI_1_28    0x0000000048714400      0x800
 ui_directory_sub.o(.text .rodata .xdata)
 .text          0x0000000048714400      0x62c ./../../lib/ui_directory_sub.o
                0x0000000048714905                move_file_records
                0x00000000487146d1                dir_select_prev
                0x0000000048714401                get_line_cnt
                0x00000000487144a9                dir_select_next
                0x00000000487148bd                init_dir_control
 .rodata        0x0000000048714a2c        0x4 ./../../lib/ui_directory_sub.o
                0x0000000048714a2c                line_cnt_vec
                0x0000000000000800                . = BANK_UI_SIZE
 *fill*         0x0000000048714a30      0x1d0 00
                0x0000000048754400                . = (((. + AP_BANK_SPACE) & ~ ((AP_BANK_SPACE - 0x1))) + OFFSET)

BANK_UI_1_29    0x0000000048754400      0x800
 ui_directory_sub2.o(.text .rodata .xdata)
 .text          0x0000000048754400      0x4f0 ./../../lib/ui_directory_sub2.o
                0x0000000048754575                init_directory_env
                0x0000000048754401                read_history_item
                0x0000000048754515                write_history_item
                0x00000000487546d9                update_listbox_private
                0x0000000000000800                . = BANK_UI_SIZE
 *fill*         0x00000000487548f0      0x310 00
                0x0000000048794400                . = (((. + AP_BANK_SPACE) & ~ ((AP_BANK_SPACE - 0x1))) + OFFSET)

BANK_UI_1_30    0x0000000048794400      0x800
 ui_menulist_sub.o(.text .rodata .xdata)
 .text          0x0000000048794400      0x490 ./../../lib/ui_menulist_sub.o
                0x0000000048794401                menulist_select_next
                0x000000004879451d                menulist_select_prev
                0x000000004879463d                update_menulist_private
                0x0000000000000800                . = BANK_UI_SIZE
 *fill*         0x0000000048794890      0x370 00
                0x00000000487d4400                . = (((. + AP_BANK_SPACE) & ~ ((AP_BANK_SPACE - 0x1))) + OFFSET)

BANK_UI_1_31    0x00000000487d4400      0x800
 ui_menulist_sub2.o(.text .rodata .xdata)
 .text          0x00000000487d4400      0x568 ./../../lib/ui_menulist_sub2.o
                0x00000000487d4401                __init_action_title
                0x00000000487d44b1                menulist_msg_deal_gui
                0x0000000000000800                . = BANK_UI_SIZE
 *fill*         0x00000000487d4968      0x298 00
                0x0000000048814400                . = (((. + AP_BANK_SPACE) & ~ ((AP_BANK_SPACE - 0x1))) + OFFSET)

BANK_UI_1_32    0x0000000048814400      0x800
 ui_textread_dec.o(.text .rodata .xdata)
 .text          0x0000000048814400      0x4b4 ./../../lib/ui_textread_dec.o
                0x00000000488146a1                text_decode_one_page
 ui_textread_sub.o(.text .rodata .xdata)
 .text          0x00000000488148b4       0xe0 ./../../lib/ui_textread_sub.o
                0x000000004881493d                show_text_line
                0x00000000488148f9                sd_fread_sector
                0x00000000488148b5                sd_fseek_sector
 .rodata        0x0000000048814994       0x18 ./../../lib/ui_textread_sub.o
                0x0000000048814994                row_pos_x
                0x0000000048814998                row_pos_y
                0x0000000000000800                . = BANK_UI_SIZE
 *fill*         0x00000000488149ac      0x254 00
                0x0000000048854600                . = ((((. + AP_BANK_SPACE) & ~ ((AP_BANK_SPACE - 0x1))) + OFFSET) + 0x200)

BANK_UI_1_33    0x0000000048854600      0x600
                0x0000000000000600                . = BANK_UI_RESERVE_SIZE
 *fill*         0x0000000048854600      0x600 00
                0x0000000048894600                . = ((((. + AP_BANK_SPACE) & ~ ((AP_BANK_SPACE - 0x1))) + OFFSET) + 0x200)

BANK_UI_1_34    0x0000000048894600      0x600
 ui_delete.o(.text .rodata .xdata)
 .text          0x0000000048894600      0x41c ./../../lib/ui_delete.o
                0x00000000488948c5                deleted_file_display
                0x00000000488949bd                delete_string_format
                0x0000000048894669                gui_delete
                0x0000000000000600                . = BANK_UI_RESERVE_SIZE
 *fill*         0x0000000048894a1c      0x1e4 00
                0x00000000488d4600                . = ((((. + AP_BANK_SPACE) & ~ ((AP_BANK_SPACE - 0x1))) + OFFSET) + 0x200)

BANK_UI_1_35    0x00000000488d4600      0x600
 ui_delete_sub.o(.text .rodata .xdata)
 .text          0x00000000488d4600      0x234 ./../../lib/ui_delete_sub.o
                0x00000000488d4601                deleted_all
                0x00000000488d47b5                delete_just_file
                0x0000000000000600                . = BANK_UI_RESERVE_SIZE
 *fill*         0x00000000488d4834      0x3cc 00
                0x0000000048914600                . = ((((. + AP_BANK_SPACE) & ~ ((AP_BANK_SPACE - 0x1))) + OFFSET) + 0x200)

BANK_UI_1_36    0x0000000048914600      0x600
 ui_keylock.o(.text .rodata .xdata)
 .text          0x0000000048914600      0x418 ./../../lib/ui_keylock.o
                0x0000000048914715                gui_keylock
                0x0000000048914601                keylock_msg_deal
                0x0000000048914701                keylock_handle
                0x0000000000000600                . = BANK_UI_RESERVE_SIZE
 *fill*         0x0000000048914a18      0x1e8 00
                0x0000000048954600                . = ((((. + AP_BANK_SPACE) & ~ ((AP_BANK_SPACE - 0x1))) + OFFSET) + 0x200)

BANK_UI_1_37    0x0000000048954600      0x600
 ui_shutoff.o(.text .rodata .xdata)
 .text          0x0000000048954600      0x2ac ./../../lib/ui_shutoff.o
                0x000000004895465d                gui_shut_off
                0x0000000048954639                timer_shutoff_handle
                0x0000000048954601                show_shutoff_time
                0x0000000000000600                . = BANK_UI_RESERVE_SIZE
 *fill*         0x00000000489548ac      0x354 00
                0x0000000048994600                . = ((((. + AP_BANK_SPACE) & ~ ((AP_BANK_SPACE - 0x1))) + OFFSET) + 0x200)

BANK_UI_1_38    0x0000000048994600      0x600
 ui_screensave.o(.text .rodata .xdata)
 .text          0x0000000048994600      0x3f0 ./../../lib/ui_screensave.o
                0x0000000048994815                gui_screen_save_exit
                0x0000000048994601                gui_screen_save_enter
                0x000000004899499d                play_albumart_save
                0x00000000489949a9                play_albumart_save_init
                0x0000000000000600                . = BANK_UI_RESERVE_SIZE
 *fill*         0x00000000489949f0      0x210 00
                0x00000000489d4600                . = ((((. + AP_BANK_SPACE) & ~ ((AP_BANK_SPACE - 0x1))) + OFFSET) + 0x200)

BANK_UI_1_39    0x00000000489d4600      0x600
 ui_screensave_sub.o(.text .rodata .xdata)
 .text          0x00000000489d4600      0x278 ./../../lib/ui_screensave_sub.o
                0x00000000489d4601                draw_digit_clock
                0x00000000489d4811                digit_clock_handle
                0x00000000489d4825                album_art_handle
 .rodata        0x00000000489d4878       0x18 ./../../lib/ui_screensave_sub.o
                0x00000000489d4878                album_art_x
                0x00000000489d4884                album_art_y
                0x0000000000000600                . = BANK_UI_RESERVE_SIZE
 *fill*         0x00000000489d4890      0x370 00
                0x0000000048a14600                . = ((((. + AP_BANK_SPACE) & ~ ((AP_BANK_SPACE - 0x1))) + OFFSET) + 0x200)

BANK_UI_1_40    0x0000000048a14600      0x600
 ui_animation.o(.text .rodata .xdata)
 .text          0x0000000048a14600      0x2d8 ./../../lib/ui_animation.o
                0x0000000048a147b1                gui_logo
                0x0000000048a14601                gui_animation
                0x0000000000000600                . = BANK_UI_RESERVE_SIZE
 *fill*         0x0000000048a148d8      0x328 00
                0x0000000048a54600                . = ((((. + AP_BANK_SPACE) & ~ ((AP_BANK_SPACE - 0x1))) + OFFSET) + 0x200)

BANK_UI_1_41    0x0000000048a54600      0x600
 ui_volumebar.o(.text .rodata .xdata)
 .text          0x0000000048a54600      0x55c ./../../lib/ui_volumebar.o
                0x0000000048a54981                gui_volumebar
                0x0000000048a54849                ui_set_parameter_volume
                0x0000000048a54601                timeup_func_proc
                0x0000000048a54615                volumebar_msg_deal
                0x0000000000000600                . = BANK_UI_RESERVE_SIZE
 *fill*         0x0000000048a54b5c       0xa4 00
                0x0000000048a94600                . = ((((. + AP_BANK_SPACE) & ~ ((AP_BANK_SPACE - 0x1))) + OFFSET) + 0x200)

BANK_UI_1_42    0x0000000048a94600      0x600
 ui_volumebar_sub.o(.text .rodata .xdata)
 .text          0x0000000048a94600      0x30c ./../../lib/ui_volumebar_sub.o
                0x0000000048a94651                show_volumebar_ui
                0x0000000048a94601                show_volume_extra
                0x0000000000000600                . = BANK_UI_RESERVE_SIZE
 *fill*         0x0000000048a9490c      0x2f4 00
                0x0000000048ad4600                . = ((((. + AP_BANK_SPACE) & ~ ((AP_BANK_SPACE - 0x1))) + OFFSET) + 0x200)

BANK_UI_1_43    0x0000000048ad4600      0x600
 ui_dialog.o(.text .rodata .xdata)
 .text          0x0000000048ad4600      0x488 ./../../lib/ui_dialog.o
                0x0000000048ad47b1                gui_dialog
                0x0000000048ad4601                dialog_msg_deal
                0x0000000048ad4a2d                gui_dialog_msg
 .rodata        0x0000000048ad4a88       0x54 ./../../lib/ui_dialog.o
                0x0000000048ad4a88                button_list
                0x0000000000000600                . = BANK_UI_RESERVE_SIZE
 *fill*         0x0000000048ad4adc      0x124 00
                0x0000000048b14600                . = ((((. + AP_BANK_SPACE) & ~ ((AP_BANK_SPACE - 0x1))) + OFFSET) + 0x200)

BANK_UI_1_44    0x0000000048b14600      0x600
 ui_usbconnect.o(.text .rodata .xdata)
 .text          0x0000000048b14600      0x51c ./../../lib/ui_usbconnect.o
                0x0000000048b14665                usbconnect_msg_deal
                0x0000000048b14641                clear_usb_time
                0x0000000048b14929                gui_usbconnect
                0x0000000048b14601                timer_usb_handle
                0x0000000048b1482d                ui_dialog_usbconnect
 .rodata        0x0000000048b14b1c       0x14 ./../../lib/ui_usbconnect.o
                0x0000000048b14b20                usb_result
                0x0000000048b14b24                style_usb_time
                0x0000000048b14b1c                usb_buttons
                0x0000000000000600                . = BANK_UI_RESERVE_SIZE
 *fill*         0x0000000048b14b30       0xd0 00
                0x0000000048b54600                . = ((((. + AP_BANK_SPACE) & ~ ((AP_BANK_SPACE - 0x1))) + OFFSET) + 0x200)

BANK_UI_1_45    0x0000000048b54600      0x600
 miscellaneous.o(.text .rodata .xdata)
 .text          0x0000000048b54600       0xa8 ./../../lib/miscellaneous.o
                0x0000000048b54601                com_set_contrast
                0x0000000048b5463d                com_set_gui_direction
                0x0000000048b54679                com_get_gui_direction
                0x0000000048b54691                com_set_sys_comval
 .rodata        0x0000000048b546a8        0xc ./../../lib/miscellaneous.o
                0x0000000048b546a8                lightness_map_data
 app_sleep.o(.text .rodata .xdata)
 .text          0x0000000048b546b4       0x84 ./../../lib/app_sleep.o
                0x0000000048b546b5                com_app_sleep
 sys_timer.o(.text .rodata .xdata)
 .text          0x0000000048b54738      0x104 ./../../lib/sys_timer.o
                0x0000000048b54811                sys_timer_exit
                0x0000000048b54739                sys_timer_init
                0x0000000000000600                . = BANK_UI_RESERVE_SIZE
 *fill*         0x0000000048b5483c      0x3c4 00
                0x0000000048b94600                . = ((((. + AP_BANK_SPACE) & ~ ((AP_BANK_SPACE - 0x1))) + OFFSET) + 0x200)

BANK_UI_1_46    0x0000000048b94600      0x600
 sys_counter.o(.text .rodata .xdata)
 .text          0x0000000048b94600      0x2d4 ./../../lib/sys_counter.o
                0x0000000048b948d1                peripheral_detect_handle
                0x0000000048b94881                sys_status_handle
                0x0000000048b94601                sys_counter_handle
 common_charge.o(.text .rodata .xdata)
 .text          0x0000000048b948d4      0x18c ./../../lib/common_charge.o
                0x0000000048b948d5                com_battery_charge_change_deal
                0x0000000048b94939                com_battery_charge_deal
 ui_headbar_handle.o(.text .rodata .xdata)
 .text          0x0000000048b94a60       0xd4 ./../../lib/ui_headbar_handle.o
                0x0000000048b94a61                gui_headbar_handle
                0x0000000000000600                . = BANK_UI_RESERVE_SIZE
 *fill*         0x0000000048b94b34       0xcc 00
                0x0000000048bd4600                . = ((((. + AP_BANK_SPACE) & ~ ((AP_BANK_SPACE - 0x1))) + OFFSET) + 0x200)

BANK_UI_1_47    0x0000000048bd4600      0x600
 message_box.o(.text .rodata .xdata)
 .text          0x0000000048bd4600      0x500 ./../../lib/message_box.o
                0x0000000048bd4601                com_message_box
                0x0000000000000600                . = BANK_UI_RESERVE_SIZE
 *fill*         0x0000000048bd4b00      0x100 00
                0x0000000048c14600                . = ((((. + AP_BANK_SPACE) & ~ ((AP_BANK_SPACE - 0x1))) + OFFSET) + 0x200)

BANK_UI_1_48    0x0000000048c14600      0x600
 alarm_msg_dispatch.o(.text .rodata .xdata)
 .text          0x0000000048c14600      0x47c ./../../lib/alarm_msg_dispatch.o
                0x0000000048c14601                com_alarm_msg_dispatch
                0x0000000048c14881                ap_alarm_init
                0x0000000048c149ad                set_timer_msg
                0x0000000048c14921                CompareAndSet_timer_flag
                0x0000000048c147ad                ap_fmautorecord_init
                0x0000000000000600                . = BANK_UI_RESERVE_SIZE
 *fill*         0x0000000048c14a7c      0x184 00
                0x0000000048c54600                . = ((((. + AP_BANK_SPACE) & ~ ((AP_BANK_SPACE - 0x1))) + OFFSET) + 0x200)

BANK_UI_1_49    0x0000000048c54600      0x600
 alarm_msg_dispatch2.o(.text .rodata .xdata)
 .text          0x0000000048c54600      0x274 ./../../lib/alarm_msg_dispatch2.o
                0x0000000048c54601                __get_weekofday
                0x0000000048c546bd                compare_curtime
                0x0000000000000600                . = BANK_UI_RESERVE_SIZE
 *fill*         0x0000000048c54874      0x38c 00
                0x0000000048c94600                . = ((((. + AP_BANK_SPACE) & ~ ((AP_BANK_SPACE - 0x1))) + OFFSET) + 0x200)

BANK_UI_1_50    0x0000000048c94600      0x600
 antenna_detect.o(.text .rodata .xdata)
 .text          0x0000000048c94600       0xf0 ./../../lib/antenna_detect.o
                0x0000000048c94601                fm_set_mute
                0x0000000048c9465d                deal_antenna_detect
                0x0000000000000600                . = BANK_UI_RESERVE_SIZE
 *fill*         0x0000000048c946f0      0x510 00
                0x0000000048cd4600                . = ((((. + AP_BANK_SPACE) & ~ ((AP_BANK_SPACE - 0x1))) + OFFSET) + 0x200)

BANK_UI_1_51    0x0000000048cd4600      0x600
 common_phy_volume_deal.o(.text .rodata .xdata)
 .text          0x0000000048cd4600       0x38 ./../../lib/common_phy_volume_deal.o
                0x0000000048cd4601                com_set_phy_volume
 common_phy_volume_table.o(.text .rodata .xdata)
 .rodata        0x0000000048cd4638      0x100 ./../../lib/common_phy_volume_table.o
                0x0000000048cd4638                g_hard_volume_table
                0x0000000000000600                . = BANK_UI_RESERVE_SIZE
 *fill*         0x0000000048cd4738      0x4c8 00
                0x0000000048d14600                . = ((((. + AP_BANK_SPACE) & ~ ((AP_BANK_SPACE - 0x1))) + OFFSET) + 0x200)

BANK_UI_1_52    0x0000000048d14600      0x600
 common_keytone_play.o(.text .rodata .xdata)
 .text          0x0000000048d14600      0x3d0 ./../../lib/common_keytone_play.o
                0x0000000048d149ad                com_start_key_tone
                0x0000000048d148d9                keytone_set_dac_chan
                0x0000000048d148a5                keytone_play_thread
                0x0000000048d14601                keytone_init_set
                0x0000000048d147ad                keytone_play_loop
                0x0000000048d14635                keytone_send_to_asrc
                0x0000000048d14971                keytone_fifo_in
                0x0000000048d14911                keytone_set_dac_sample
                0x0000000048d14721                keytone_play_frame
                0x0000000048d1494d                keytone_play_deal
                0x0000000048d1491d                keytone_fifo_out
                0x0000000048d14995                keytone_play
 .rodata        0x0000000048d149d0        0xc ./../../lib/common_keytone_play.o
                0x0000000048d149d0                g_keytone_file
 .xdata         0x0000000048d149dc      0x200 ./../../lib/common_keytone_play.o
                0x0000000048d149dc                g_bitstream_buffer
                0x0000000000000600                . = BANK_UI_RESERVE_SIZE
 *fill*         0x0000000048d14bdc       0x24 00

.rel.dyn

.reginfo        0x0000000000000000       0x18
 .reginfo       0x0000000000000000       0x18 ./../../lib/applib_globe_data.o

.pdr            0x0000000000000000     0x6e80
 .pdr           0x0000000000000000       0xc0 ./obj/music_playing_show_lyric.o
 .pdr           0x00000000000000c0       0x20 ./../../../psp_rel/lib/api.a(libc_op_entry.o)
 .pdr           0x00000000000000e0       0x20 ./../../../psp_rel/lib/api.a(ui_op_entry.o)
 .pdr           0x0000000000000100      0x220 ./obj/music_control.o
 .pdr           0x0000000000000320       0x20 ./../../lib/app_timer_rcode.o
 .pdr           0x0000000000000340       0x60 ./../../lib/message_rcode.o
 .pdr           0x00000000000003a0      0x100 ./obj/music_main.o
 .pdr           0x00000000000004a0      0x160 ./obj/music_setmenu_soundset_param.o
 .pdr           0x0000000000000600       0x40 ./../../../psp_rel/lib/ctor.o
 .pdr           0x0000000000000640      0x140 ./obj/music_scene_playing.o
 .pdr           0x0000000000000780       0x20 ./obj/music_scene_playing_sub.o
 .pdr           0x00000000000007a0       0x80 ./obj/music_playing_playdeal_sub.o
 .pdr           0x0000000000000820       0xc0 ./obj/music_playing_playdeal.o
 .pdr           0x00000000000008e0       0x80 ./obj/music_playing_paint.o
 .pdr           0x0000000000000960      0x1a0 ./obj/music_playing_keymsg.o
 .pdr           0x0000000000000b00       0xe0 ./obj/music_playing_getid3.o
 .pdr           0x0000000000000be0       0xa0 ./obj/music_scene_listmenu.o
 .pdr           0x0000000000000c80       0x60 ./obj/music_listmenu_listmenu.o
 .pdr           0x0000000000000ce0      0x2e0 ./obj/music_listmenu_menusure.o
 .pdr           0x0000000000000fc0       0xe0 ./obj/music_listmenu_menuoption.o
 .pdr           0x00000000000010a0      0x120 ./obj/music_listmenu_optionitem.o
 .pdr           0x00000000000011c0      0x2a0 ./obj/music_listmenu_listoption.o
 .pdr           0x0000000000001460       0xa0 ./obj/music_scene_setmenu.o
 .pdr           0x0000000000001500      0x220 ./obj/music_setmenu_playmode.o
 .pdr           0x0000000000001720      0x240 ./obj/music_setmenu_soundset.o
 .pdr           0x0000000000001960       0xc0 ./obj/music_setmenu_otheritem.o
 .pdr           0x0000000000001a20       0xc0 ./obj/music_setmenu_audible.o
 .pdr           0x0000000000001ae0       0xe0 ./obj/music_setmenu_favordeal.o
 .pdr           0x0000000000001bc0       0x60 ./obj/music_setmenu_show_cue.o
 .pdr           0x0000000000001c20       0x40 ./obj/music_ape_cue.o
 .pdr           0x0000000000001c60      0x140 ./obj/music_add_favorite.o
 .pdr           0x0000000000001da0       0xa0 ./obj/music_add_favorite_sub.o
 .pdr           0x0000000000001e40      0x100 ./obj/music_del_favorite.o
 .pdr           0x0000000000001f40      0x180 ./obj/music_control_bank.o
 .pdr           0x00000000000020c0       0x60 ./obj/music_creat_albumart_file.o
 .pdr           0x0000000000002120       0x60 ./obj/music_audible_sys.o
 .pdr           0x0000000000002180       0x40 ./obj/music_setmenu_bookmark_deal_sub.o
 .pdr           0x00000000000021c0       0x80 ./obj/music_setmenu_bookmark_deal.o
 .pdr           0x0000000000002240       0x40 ./obj/music_del_bookmark.o
 .pdr           0x0000000000002280       0x40 ./obj/music_create_bookmark.o
 .pdr           0x00000000000022c0      0x100 ./obj/music_setmenu_show_bookmark.o
 .pdr           0x00000000000023c0       0x60 ./obj/music_setmenu_bookmark.o
 .pdr           0x0000000000002420       0x60 ./obj/music_clear_favorite.o
 .pdr           0x0000000000002480       0xc0 ./obj/music_listmenu_albumlist.o
 .pdr           0x0000000000002540       0xc0 ./obj/music_setmenu_bookmark_rw.o
 .pdr           0x0000000000002600      0x140 ./../../../psp_rel/lib/lib_enhanced/eh_module.o
 .pdr           0x0000000000002740       0x20 ./../../../psp_rel/lib/api.a(audio_device_op_entry.o)
 .pdr           0x0000000000002760       0x20 ./../../../psp_rel/lib/api.a(key_op_entry.o)
 .pdr           0x0000000000002780       0x20 ./../../../psp_rel/lib/api.a(lcd_op_entry.o)
 .pdr           0x00000000000027a0       0x20 ./../../../psp_rel/lib/api.a(mmm_id_cmd.o)
 .pdr           0x00000000000027c0       0x20 ./../../../psp_rel/lib/api.a(sys_op_entry.o)
 .pdr           0x00000000000027e0       0x20 ./../../../psp_rel/lib/api.a(vfs_op_entry.o)
 .pdr           0x0000000000002800       0x20 ./../../../psp_rel/lib/api.a(base_op_entry.o)
 .pdr           0x0000000000002820       0x80 ./../../../psp_rel/lib/lib_enhanced/eh_change_location.o
 .pdr           0x00000000000028a0       0xe0 ./../../../psp_rel/lib/lib_enhanced/eh_fav_operation.o
 .pdr           0x0000000000002980       0x40 ./../../../psp_rel/lib/lib_enhanced/eh_change_fav_location.o
 .pdr           0x00000000000029c0       0x60 ./../../../psp_rel/lib/lib_enhanced/eh_make_listlayer.o
 .pdr           0x0000000000002a20      0x1a0 ./../../../psp_rel/lib/lib_enhanced/eh_bs_entry.o
 .pdr           0x0000000000002bc0       0x80 ./../../../psp_rel/lib/lib_enhanced/eh_bs_function.o
 .pdr           0x0000000000002c40       0xc0 ./../../../psp_rel/lib/lib_enhanced/eh_id3_entry.o
 .pdr           0x0000000000002d00       0x20 ./../../../psp_rel/lib/lib_enhanced/eh_id3_aac.o
 .pdr           0x0000000000002d20       0xc0 ./../../../psp_rel/lib/lib_enhanced/eh_id3_function.o
 .pdr           0x0000000000002de0      0x100 ./../../../psp_rel/lib/lib_enhanced/eh_lyric_get.o
 .pdr           0x0000000000002ee0      0x1c0 ./../../../psp_rel/lib/lib_enhanced/eh_fsel_entry.o
 .pdr           0x00000000000030a0       0xc0 ./../../../psp_rel/lib/lib_enhanced/eh_fsel_function.o
 .pdr           0x0000000000003160       0xa0 ./../../../psp_rel/lib/lib_enhanced/eh_cue_load.o
 .pdr           0x0000000000003200       0xa0 ./../../../psp_rel/lib/lib_enhanced/eh_module_sub.o
 .pdr           0x00000000000032a0       0x80 ./../../../psp_rel/lib/lib_enhanced/eh_fav_operation_sub.o
 .pdr           0x0000000000003320       0x80 ./../../../psp_rel/lib/lib_enhanced/eh_change_location_sub.o
 .pdr           0x00000000000033a0       0x80 ./../../../psp_rel/lib/lib_enhanced/eh_fav_operation_sub2.o
 .pdr           0x0000000000003420       0x40 ./../../../psp_rel/lib/lib_enhanced/eh_make_listlayer_sub.o
 .pdr           0x0000000000003460       0xe0 ./../../../psp_rel/lib/lib_enhanced/eh_bs_directory.o
 .pdr           0x0000000000003540       0xe0 ./../../../psp_rel/lib/lib_enhanced/eh_bs_directory_func.o
 .pdr           0x0000000000003620       0xc0 ./../../../psp_rel/lib/lib_enhanced/eh_bs_favorite.o
 .pdr           0x00000000000036e0       0xc0 ./../../../psp_rel/lib/lib_enhanced/eh_bs_favorite_func.o
 .pdr           0x00000000000037a0      0x100 ./../../../psp_rel/lib/lib_enhanced/eh_bs_playlist.o
 .pdr           0x00000000000038a0       0xc0 ./../../../psp_rel/lib/lib_enhanced/eh_bs_playlist_func.o
 .pdr           0x0000000000003960      0x140 ./../../../psp_rel/lib/lib_enhanced/eh_bs_playlist_del.o
 .pdr           0x0000000000003aa0       0x40 ./../../../psp_rel/lib/lib_enhanced/eh_bs_other_deal.o
 .pdr           0x0000000000003ae0      0x100 ./../../../psp_rel/lib/lib_enhanced/eh_bs_playlist2.o
 .pdr           0x0000000000003be0       0x20 ./../../../psp_rel/lib/lib_enhanced/eh_bs_function_sub.o
 .pdr           0x0000000000003c00      0x120 ./../../../psp_rel/lib/lib_enhanced/eh_bs_browser.o
 .pdr           0x0000000000003d20      0x120 ./../../../psp_rel/lib/lib_enhanced/eh_bs_browser_func.o
 .pdr           0x0000000000003e40       0x40 ./../../../psp_rel/lib/lib_enhanced/eh_id3_mp3_v1.o
 .pdr           0x0000000000003e80       0xc0 ./../../../psp_rel/lib/lib_enhanced/eh_id3_mp3_v2.o
 .pdr           0x0000000000003f40       0xc0 ./../../../psp_rel/lib/lib_enhanced/eh_id3_wma.o
 .pdr           0x0000000000004000       0x80 ./../../../psp_rel/lib/lib_enhanced/eh_id3_ape.o
 .pdr           0x0000000000004080       0xc0 ./../../../psp_rel/lib/lib_enhanced/eh_id3_flac.o
 .pdr           0x0000000000004140       0xa0 ./../../../psp_rel/lib/lib_enhanced/eh_id3_ogg.o
 .pdr           0x00000000000041e0       0xa0 ./../../../psp_rel/lib/lib_enhanced/eh_id3_aa.o
 .pdr           0x0000000000004280       0xa0 ./../../../psp_rel/lib/lib_enhanced/eh_id3_aax.o
 .pdr           0x0000000000004320       0x20 ./../../../psp_rel/lib/lib_enhanced/eh_id3_function_sub.o
 .pdr           0x0000000000004340       0x40 ./../../../psp_rel/lib/lib_enhanced/eh_id3_utf8_deal.o
 .pdr           0x0000000000004380       0xe0 ./../../../psp_rel/lib/lib_enhanced/eh_fsel_directory_next.o
 .pdr           0x0000000000004460       0x80 ./../../../psp_rel/lib/lib_enhanced/eh_fsel_directory_prev.o
 .pdr           0x00000000000044e0       0xa0 ./../../../psp_rel/lib/lib_enhanced/eh_fsel_directory_func.o
 .pdr           0x0000000000004580      0x140 ./../../../psp_rel/lib/lib_enhanced/eh_fsel_favorite_sel.o
 .pdr           0x00000000000046c0       0x20 ./../../../psp_rel/lib/lib_enhanced/eh_fsel_favorite_func.o
 .pdr           0x00000000000046e0      0x160 ./../../../psp_rel/lib/lib_enhanced/eh_fsel_shuffle.o
 .pdr           0x0000000000004840      0x120 ./../../../psp_rel/lib/lib_enhanced/eh_fsel_playlist_sel.o
 .pdr           0x0000000000004960      0x100 ./../../../psp_rel/lib/lib_enhanced/eh_fsel_playlist_func.o
 .pdr           0x0000000000004a60       0x20 ./../../../psp_rel/lib/lib_enhanced/eh_fsel_playlist_del.o
 .pdr           0x0000000000004a80       0x20 ./../../../psp_rel/lib/lib_enhanced/eh_fsel_shuffle2.o
 .pdr           0x0000000000004aa0       0x20 ./../../../psp_rel/lib/lib_enhanced/eh_fsel_function_sub.o
 .pdr           0x0000000000004ac0       0xa0 ./../../../psp_rel/lib/lib_enhanced/eh_fsel_browser_prev.o
 .pdr           0x0000000000004b60       0xc0 ./../../../psp_rel/lib/lib_enhanced/eh_fsel_browser_next.o
 .pdr           0x0000000000004c20      0x180 ./../../../psp_rel/lib/lib_enhanced/eh_fsel_browser_function.o
 .pdr           0x0000000000004da0       0x80 ./../../../psp_rel/lib/lib_enhanced/eh_cue_load_sub1.o
 .pdr           0x0000000000004e20       0x20 ./../../../psp_rel/lib/lib_enhanced/eh_cue_load_sub2.o
 .pdr           0x0000000000004e40      0x160 ./../../lib/ui_directory.o
 .pdr           0x0000000000004fa0       0xe0 ./../../lib/ui_menulist.o
 .pdr           0x0000000000005080      0x160 ./../../lib/ui_menulist2.o
 .pdr           0x00000000000051e0      0x120 ./../../lib/ui_menulist_simple.o
 .pdr           0x0000000000005300       0xa0 ./../../lib/ui_directory2.o
 .pdr           0x00000000000053a0       0xc0 ./../../lib/ui_parameter.o
 .pdr           0x0000000000005460       0x80 ./../../lib/ui_textread.o
 .pdr           0x00000000000054e0       0x40 ./../../lib/setting_comval.o
 .pdr           0x0000000000005520       0x80 ./../../lib/common_setdae_init.o
 .pdr           0x00000000000055a0       0x40 ./../../lib/app_manager_bank.o
 .pdr           0x00000000000055e0       0xc0 ./../../lib/app_timer_bank.o
 .pdr           0x00000000000056a0       0xc0 ./../../lib/ui_headbar.o
 .pdr           0x0000000000005760       0x20 ./../../lib/message_bank_init.o
 .pdr           0x0000000000005780       0x80 ./../../lib/message_bank_send.o
 .pdr           0x0000000000005800       0x40 ./../../lib/message_bank_broadcast.o
 .pdr           0x0000000000005840       0x60 ./../../lib/common_config.o
 .pdr           0x00000000000058a0       0x20 ./../../lib/common_msgmap.o
 .pdr           0x00000000000058c0       0xc0 ./../../lib/common_confmenu.o
 .pdr           0x0000000000005980       0xc0 ./../../lib/common_history.o
 .pdr           0x0000000000005a40       0x40 ./../../lib/common_string.o
 .pdr           0x0000000000005a80       0xa0 ./../../lib/common_string2.o
 .pdr           0x0000000000005b20      0x160 ./../../lib/common_key.o
 .pdr           0x0000000000005c80      0x140 ./../../lib/common_msg.o
 .pdr           0x0000000000005dc0      0x140 ./../../lib/common_sound.o
 .pdr           0x0000000000005f00       0xa0 ./../../lib/ui_directory_sub.o
 .pdr           0x0000000000005fa0       0x80 ./../../lib/ui_directory_sub2.o
 .pdr           0x0000000000006020       0x60 ./../../lib/ui_menulist_sub.o
 .pdr           0x0000000000006080       0x60 ./../../lib/ui_menulist_sub2.o
 .pdr           0x00000000000060e0       0x60 ./../../lib/ui_textread_dec.o
 .pdr           0x0000000000006140       0x60 ./../../lib/ui_textread_sub.o
 .pdr           0x00000000000061a0       0xa0 ./../../lib/ui_delete.o
 .pdr           0x0000000000006240       0x40 ./../../lib/ui_delete_sub.o
 .pdr           0x0000000000006280       0xe0 ./../../lib/ui_keylock.o
 .pdr           0x0000000000006360       0xa0 ./../../lib/ui_shutoff.o
 .pdr           0x0000000000006400      0x180 ./../../lib/ui_screensave.o
 .pdr           0x0000000000006580       0xa0 ./../../lib/ui_screensave_sub.o
 .pdr           0x0000000000006620       0xa0 ./../../lib/ui_animation.o
 .pdr           0x00000000000066c0       0xc0 ./../../lib/ui_volumebar.o
 .pdr           0x0000000000006780       0x40 ./../../lib/ui_volumebar_sub.o
 .pdr           0x00000000000067c0       0xa0 ./../../lib/ui_dialog.o
 .pdr           0x0000000000006860       0xe0 ./../../lib/ui_usbconnect.o
 .pdr           0x0000000000006940       0x80 ./../../lib/miscellaneous.o
 .pdr           0x00000000000069c0       0x20 ./../../lib/app_sleep.o
 .pdr           0x00000000000069e0       0x80 ./../../lib/sys_timer.o
 .pdr           0x0000000000006a60       0x60 ./../../lib/sys_counter.o
 .pdr           0x0000000000006ac0       0x40 ./../../lib/common_charge.o
 .pdr           0x0000000000006b00       0x20 ./../../lib/ui_headbar_handle.o
 .pdr           0x0000000000006b20       0x80 ./../../lib/message_box.o
 .pdr           0x0000000000006ba0       0xa0 ./../../lib/alarm_msg_dispatch.o
 .pdr           0x0000000000006c40       0x40 ./../../lib/alarm_msg_dispatch2.o
 .pdr           0x0000000000006c80       0x60 ./../../lib/antenna_detect.o
 .pdr           0x0000000000006ce0       0x20 ./../../lib/common_phy_volume_deal.o
 .pdr           0x0000000000006d00      0x180 ./../../lib/common_keytone_play.o

.mdebug.abi32   0x0000000000000000        0x0

.debug_abbrev   0x0000000000000000     0xe9de
 .debug_abbrev  0x0000000000000000       0xcf ./../../lib/applib_globe_data.o
 .debug_abbrev  0x00000000000000cf      0x110 ./../../lib/applib_app_data.o
 .debug_abbrev  0x00000000000001df      0x1d5 ./obj/music_playing_show_lyric.o
 .debug_abbrev  0x00000000000003b4       0x14 ./../../../psp_rel/lib/api.a(libc_op_entry.o)
 .debug_abbrev  0x00000000000003c8       0x14 ./../../../psp_rel/lib/api.a(ui_op_entry.o)
 .debug_abbrev  0x00000000000003dc      0x20d ./obj/music_control.o
 .debug_abbrev  0x00000000000005e9       0xe6 ./../../lib/app_timer_rcode.o
 .debug_abbrev  0x00000000000006cf      0x16d ./../../lib/message_rcode.o
 .debug_abbrev  0x000000000000083c      0x1c0 ./obj/music_main.o
 .debug_abbrev  0x00000000000009fc       0xc2 ./../../../psp_rel/lib/lib_enhanced/eh_rdata.o
 .debug_abbrev  0x0000000000000abe       0x5a ./../../../psp_rel/lib/lib_enhanced/eh_fsel_rdata.o
 .debug_abbrev  0x0000000000000b18       0x83 ./../../../psp_rel/lib/lib_enhanced/eh_bs_rdata.o
 .debug_abbrev  0x0000000000000b9b       0x3b ./../../../psp_rel/lib/lib_enhanced/eh_id3_rdata.o
 .debug_abbrev  0x0000000000000bd6       0x48 ./../../../psp_rel/lib/lib_enhanced/eh_lrc_get_rdata.o
 .debug_abbrev  0x0000000000000c1e      0x1c3 ./obj/music_setmenu_soundset_param.o
 .debug_abbrev  0x0000000000000de1      0x146 ./../../lib/common_ui_data.o
 .debug_abbrev  0x0000000000000f27       0xb9 ./../../lib/common_func_data.o
 .debug_abbrev  0x0000000000000fe0       0xac ./../../../psp_rel/lib/ctor.o
 .debug_abbrev  0x000000000000108c      0x23b ./obj/music_scene_playing.o
 .debug_abbrev  0x00000000000012c7      0x158 ./obj/music_scene_playing_sub.o
 .debug_abbrev  0x000000000000141f      0x177 ./obj/music_playing_playdeal_sub.o
 .debug_abbrev  0x0000000000001596      0x1ca ./obj/music_playing_playdeal.o
 .debug_abbrev  0x0000000000001760      0x1bd ./obj/music_playing_paint.o
 .debug_abbrev  0x000000000000191d      0x1d7 ./obj/music_playing_keymsg.o
 .debug_abbrev  0x0000000000001af4      0x204 ./obj/music_playing_getid3.o
 .debug_abbrev  0x0000000000001cf8      0x1ed ./obj/music_scene_listmenu.o
 .debug_abbrev  0x0000000000001ee5      0x13b ./obj/music_listmenu_listmenu.o
 .debug_abbrev  0x0000000000002020      0x258 ./obj/music_listmenu_menusure.o
 .debug_abbrev  0x0000000000002278      0x168 ./obj/music_listmenu_menuoption.o
 .debug_abbrev  0x00000000000023e0      0x152 ./obj/music_listmenu_optionitem.o
 .debug_abbrev  0x0000000000002532      0x21b ./obj/music_listmenu_listoption.o
 .debug_abbrev  0x000000000000274d      0x191 ./obj/music_scene_setmenu.o
 .debug_abbrev  0x00000000000028de      0x203 ./obj/music_setmenu_playmode.o
 .debug_abbrev  0x0000000000002ae1      0x1db ./obj/music_setmenu_soundset.o
 .debug_abbrev  0x0000000000002cbc      0x1e3 ./obj/music_setmenu_otheritem.o
 .debug_abbrev  0x0000000000002e9f      0x1e6 ./obj/music_setmenu_audible.o
 .debug_abbrev  0x0000000000003085      0x103 ./obj/music_setmenu_favordeal.o
 .debug_abbrev  0x0000000000003188      0x16d ./obj/music_setmenu_show_cue.o
 .debug_abbrev  0x00000000000032f5       0xf5 ./obj/music_ape_cue.o
 .debug_abbrev  0x00000000000033ea      0x23e ./obj/music_add_favorite.o
 .debug_abbrev  0x0000000000003628      0x1ea ./obj/music_add_favorite_sub.o
 .debug_abbrev  0x0000000000003812      0x1fb ./obj/music_del_favorite.o
 .debug_abbrev  0x0000000000003a0d      0x1f6 ./obj/music_control_bank.o
 .debug_abbrev  0x0000000000003c03      0x11e ./obj/music_creat_albumart_file.o
 .debug_abbrev  0x0000000000003d21      0x10e ./obj/music_menu_config.o
 .debug_abbrev  0x0000000000003e2f      0x161 ./obj/music_audible_sys.o
 .debug_abbrev  0x0000000000003f90      0x154 ./obj/music_setmenu_bookmark_deal_sub.o
 .debug_abbrev  0x00000000000040e4      0x182 ./obj/music_setmenu_bookmark_deal.o
 .debug_abbrev  0x0000000000004266      0x129 ./obj/music_del_bookmark.o
 .debug_abbrev  0x000000000000438f      0x111 ./obj/music_create_bookmark.o
 .debug_abbrev  0x00000000000044a0      0x220 ./obj/music_setmenu_show_bookmark.o
 .debug_abbrev  0x00000000000046c0       0xe7 ./obj/music_setmenu_bookmark.o
 .debug_abbrev  0x00000000000047a7      0x17f ./obj/music_clear_favorite.o
 .debug_abbrev  0x0000000000004926      0x1ce ./obj/music_listmenu_albumlist.o
 .debug_abbrev  0x0000000000004af4      0x167 ./obj/music_setmenu_bookmark_rw.o
 .debug_abbrev  0x0000000000004c5b      0x1a5 ./../../../psp_rel/lib/lib_enhanced/eh_module.o
 .debug_abbrev  0x0000000000004e00       0x14 ./../../../psp_rel/lib/api.a(audio_device_op_entry.o)
 .debug_abbrev  0x0000000000004e14       0x14 ./../../../psp_rel/lib/api.a(key_op_entry.o)
 .debug_abbrev  0x0000000000004e28       0x14 ./../../../psp_rel/lib/api.a(lcd_op_entry.o)
 .debug_abbrev  0x0000000000004e3c       0x14 ./../../../psp_rel/lib/api.a(mmm_id_cmd.o)
 .debug_abbrev  0x0000000000004e50       0x14 ./../../../psp_rel/lib/api.a(sys_op_entry.o)
 .debug_abbrev  0x0000000000004e64       0x14 ./../../../psp_rel/lib/api.a(vfs_op_entry.o)
 .debug_abbrev  0x0000000000004e78       0x14 ./../../../psp_rel/lib/api.a(base_op_entry.o)
 .debug_abbrev  0x0000000000004e8c      0x15f ./../../../psp_rel/lib/lib_enhanced/eh_change_location.o
 .debug_abbrev  0x0000000000004feb      0x1b5 ./../../../psp_rel/lib/lib_enhanced/eh_fav_operation.o
 .debug_abbrev  0x00000000000051a0      0x155 ./../../../psp_rel/lib/lib_enhanced/eh_change_fav_location.o
 .debug_abbrev  0x00000000000052f5      0x13c ./../../../psp_rel/lib/lib_enhanced/eh_make_listlayer.o
 .debug_abbrev  0x0000000000005431      0x182 ./../../../psp_rel/lib/lib_enhanced/eh_bs_entry.o
 .debug_abbrev  0x00000000000055b3      0x200 ./../../../psp_rel/lib/lib_enhanced/eh_bs_function.o
 .debug_abbrev  0x00000000000057b3      0x193 ./../../../psp_rel/lib/lib_enhanced/eh_id3_entry.o
 .debug_abbrev  0x0000000000005946       0x5f ./../../../psp_rel/lib/lib_enhanced/eh_id3_aac.o
 .debug_abbrev  0x00000000000059a5      0x13e ./../../../psp_rel/lib/lib_enhanced/eh_id3_function.o
 .debug_abbrev  0x0000000000005ae3      0x154 ./../../../psp_rel/lib/lib_enhanced/eh_lyric_get.o
 .debug_abbrev  0x0000000000005c37      0x1bb ./../../../psp_rel/lib/lib_enhanced/eh_fsel_entry.o
 .debug_abbrev  0x0000000000005df2      0x189 ./../../../psp_rel/lib/lib_enhanced/eh_fsel_function.o
 .debug_abbrev  0x0000000000005f7b       0xc9 ./../../../psp_rel/lib/lib_enhanced/eh_cue_load.o
 .debug_abbrev  0x0000000000006044      0x1bb ./../../../psp_rel/lib/lib_enhanced/eh_module_sub.o
 .debug_abbrev  0x00000000000061ff      0x104 ./../../../psp_rel/lib/lib_enhanced/eh_fav_operation_sub.o
 .debug_abbrev  0x0000000000006303      0x182 ./../../../psp_rel/lib/lib_enhanced/eh_change_location_sub.o
 .debug_abbrev  0x0000000000006485      0x162 ./../../../psp_rel/lib/lib_enhanced/eh_fav_operation_sub2.o
 .debug_abbrev  0x00000000000065e7      0x11b ./../../../psp_rel/lib/lib_enhanced/eh_make_listlayer_sub.o
 .debug_abbrev  0x0000000000006702      0x1cb ./../../../psp_rel/lib/lib_enhanced/eh_bs_directory.o
 .debug_abbrev  0x00000000000068cd      0x1b6 ./../../../psp_rel/lib/lib_enhanced/eh_bs_directory_func.o
 .debug_abbrev  0x0000000000006a83      0x171 ./../../../psp_rel/lib/lib_enhanced/eh_bs_favorite.o
 .debug_abbrev  0x0000000000006bf4      0x1ad ./../../../psp_rel/lib/lib_enhanced/eh_bs_favorite_func.o
 .debug_abbrev  0x0000000000006da1      0x1c5 ./../../../psp_rel/lib/lib_enhanced/eh_bs_playlist.o
 .debug_abbrev  0x0000000000006f66      0x1d4 ./../../../psp_rel/lib/lib_enhanced/eh_bs_playlist_func.o
 .debug_abbrev  0x000000000000713a      0x1d3 ./../../../psp_rel/lib/lib_enhanced/eh_bs_playlist_del.o
 .debug_abbrev  0x000000000000730d       0xea ./../../../psp_rel/lib/lib_enhanced/eh_bs_other_deal.o
 .debug_abbrev  0x00000000000073f7      0x1e7 ./../../../psp_rel/lib/lib_enhanced/eh_bs_playlist2.o
 .debug_abbrev  0x00000000000075de       0x3d ./../../../psp_rel/lib/lib_enhanced/eh_bs_function_sub.o
 .debug_abbrev  0x000000000000761b      0x1a9 ./../../../psp_rel/lib/lib_enhanced/eh_bs_browser.o
 .debug_abbrev  0x00000000000077c4      0x1bc ./../../../psp_rel/lib/lib_enhanced/eh_bs_browser_func.o
 .debug_abbrev  0x0000000000007980       0xd3 ./../../../psp_rel/lib/lib_enhanced/eh_id3_mp3_v1.o
 .debug_abbrev  0x0000000000007a53      0x196 ./../../../psp_rel/lib/lib_enhanced/eh_id3_mp3_v2.o
 .debug_abbrev  0x0000000000007be9      0x148 ./../../../psp_rel/lib/lib_enhanced/eh_id3_wma.o
 .debug_abbrev  0x0000000000007d31      0x126 ./../../../psp_rel/lib/lib_enhanced/eh_id3_ape.o
 .debug_abbrev  0x0000000000007e57      0x132 ./../../../psp_rel/lib/lib_enhanced/eh_id3_flac.o
 .debug_abbrev  0x0000000000007f89      0x15b ./../../../psp_rel/lib/lib_enhanced/eh_id3_ogg.o
 .debug_abbrev  0x00000000000080e4      0x115 ./../../../psp_rel/lib/lib_enhanced/eh_id3_aa.o
 .debug_abbrev  0x00000000000081f9      0x13a ./../../../psp_rel/lib/lib_enhanced/eh_id3_aax.o
 .debug_abbrev  0x0000000000008333       0x3d ./../../../psp_rel/lib/lib_enhanced/eh_id3_function_sub.o
 .debug_abbrev  0x0000000000008370       0xba ./../../../psp_rel/lib/lib_enhanced/eh_id3_utf8_deal.o
 .debug_abbrev  0x000000000000842a      0x1ce ./../../../psp_rel/lib/lib_enhanced/eh_fsel_directory_next.o
 .debug_abbrev  0x00000000000085f8      0x10d ./../../../psp_rel/lib/lib_enhanced/eh_fsel_directory_prev.o
 .debug_abbrev  0x0000000000008705       0xe3 ./../../../psp_rel/lib/lib_enhanced/eh_fsel_directory_func.o
 .debug_abbrev  0x00000000000087e8      0x1b5 ./../../../psp_rel/lib/lib_enhanced/eh_fsel_favorite_sel.o
 .debug_abbrev  0x000000000000899d       0x5d ./../../../psp_rel/lib/lib_enhanced/eh_fsel_favorite_func.o
 .debug_abbrev  0x00000000000089fa      0x180 ./../../../psp_rel/lib/lib_enhanced/eh_fsel_shuffle.o
 .debug_abbrev  0x0000000000008b7a      0x178 ./../../../psp_rel/lib/lib_enhanced/eh_fsel_playlist_sel.o
 .debug_abbrev  0x0000000000008cf2      0x1e8 ./../../../psp_rel/lib/lib_enhanced/eh_fsel_playlist_func.o
 .debug_abbrev  0x0000000000008eda       0x3d ./../../../psp_rel/lib/lib_enhanced/eh_fsel_playlist_del.o
 .debug_abbrev  0x0000000000008f17       0x3d ./../../../psp_rel/lib/lib_enhanced/eh_fsel_shuffle2.o
 .debug_abbrev  0x0000000000008f54       0x3d ./../../../psp_rel/lib/lib_enhanced/eh_fsel_function_sub.o
 .debug_abbrev  0x0000000000008f91      0x146 ./../../../psp_rel/lib/lib_enhanced/eh_fsel_browser_prev.o
 .debug_abbrev  0x00000000000090d7      0x1dc ./../../../psp_rel/lib/lib_enhanced/eh_fsel_browser_next.o
 .debug_abbrev  0x00000000000092b3      0x1b9 ./../../../psp_rel/lib/lib_enhanced/eh_fsel_browser_function.o
 .debug_abbrev  0x000000000000946c       0xec ./../../../psp_rel/lib/lib_enhanced/eh_cue_load_sub1.o
 .debug_abbrev  0x0000000000009558       0xdb ./../../../psp_rel/lib/lib_enhanced/eh_cue_load_sub2.o
 .debug_abbrev  0x0000000000009633      0x26a ./../../lib/ui_directory.o
 .debug_abbrev  0x000000000000989d      0x237 ./../../lib/ui_menulist.o
 .debug_abbrev  0x0000000000009ad4      0x1f7 ./../../lib/ui_menulist2.o
 .debug_abbrev  0x0000000000009ccb      0x202 ./../../lib/ui_menulist_simple.o
 .debug_abbrev  0x0000000000009ecd      0x1ec ./../../lib/ui_directory2.o
 .debug_abbrev  0x000000000000a0b9      0x24c ./../../lib/ui_parameter.o
 .debug_abbrev  0x000000000000a305      0x1f8 ./../../lib/ui_textread.o
 .debug_abbrev  0x000000000000a4fd      0x10b ./../../lib/setting_comval.o
 .debug_abbrev  0x000000000000a608      0x12c ./../../lib/common_setdae_init.o
 .debug_abbrev  0x000000000000a734      0x15f ./../../lib/app_manager_bank.o
 .debug_abbrev  0x000000000000a893      0x198 ./../../lib/app_timer_bank.o
 .debug_abbrev  0x000000000000aa2b      0x19a ./../../lib/ui_headbar.o
 .debug_abbrev  0x000000000000abc5      0x12f ./../../lib/message_bank_init.o
 .debug_abbrev  0x000000000000acf4      0x14b ./../../lib/message_bank_send.o
 .debug_abbrev  0x000000000000ae3f      0x100 ./../../lib/message_bank_broadcast.o
 .debug_abbrev  0x000000000000af3f       0xf5 ./../../lib/common_config.o
 .debug_abbrev  0x000000000000b034       0xde ./../../lib/common_msgmap_data.o
 .debug_abbrev  0x000000000000b112      0x11b ./../../lib/common_msgmap.o
 .debug_abbrev  0x000000000000b22d      0x15a ./../../lib/common_confmenu.o
 .debug_abbrev  0x000000000000b387      0x156 ./../../lib/common_history.o
 .debug_abbrev  0x000000000000b4dd      0x13f ./../../lib/common_string.o
 .debug_abbrev  0x000000000000b61c      0x121 ./../../lib/common_string2.o
 .debug_abbrev  0x000000000000b73d      0x1c4 ./../../lib/common_key.o
 .debug_abbrev  0x000000000000b901      0x182 ./../../lib/common_msg.o
 .debug_abbrev  0x000000000000ba83      0x1e2 ./../../lib/common_sound.o
 .debug_abbrev  0x000000000000bc65      0x1c6 ./../../lib/ui_directory_sub.o
 .debug_abbrev  0x000000000000be2b      0x1b2 ./../../lib/ui_directory_sub2.o
 .debug_abbrev  0x000000000000bfdd      0x170 ./../../lib/ui_menulist_sub.o
 .debug_abbrev  0x000000000000c14d      0x184 ./../../lib/ui_menulist_sub2.o
 .debug_abbrev  0x000000000000c2d1      0x1b9 ./../../lib/ui_textread_dec.o
 .debug_abbrev  0x000000000000c48a      0x13e ./../../lib/ui_textread_sub.o
 .debug_abbrev  0x000000000000c5c8      0x22e ./../../lib/ui_delete.o
 .debug_abbrev  0x000000000000c7f6      0x1a0 ./../../lib/ui_delete_sub.o
 .debug_abbrev  0x000000000000c996      0x1ec ./../../lib/ui_keylock.o
 .debug_abbrev  0x000000000000cb82      0x1fd ./../../lib/ui_shutoff.o
 .debug_abbrev  0x000000000000cd7f      0x1af ./../../lib/ui_screensave.o
 .debug_abbrev  0x000000000000cf2e      0x165 ./../../lib/ui_screensave_sub.o
 .debug_abbrev  0x000000000000d093      0x1e7 ./../../lib/ui_animation.o
 .debug_abbrev  0x000000000000d27a      0x219 ./../../lib/ui_volumebar.o
 .debug_abbrev  0x000000000000d493      0x173 ./../../lib/ui_volumebar_sub.o
 .debug_abbrev  0x000000000000d606      0x219 ./../../lib/ui_dialog.o
 .debug_abbrev  0x000000000000d81f      0x208 ./../../lib/ui_usbconnect.o
 .debug_abbrev  0x000000000000da27      0x147 ./../../lib/miscellaneous.o
 .debug_abbrev  0x000000000000db6e      0x11d ./../../lib/app_sleep.o
 .debug_abbrev  0x000000000000dc8b      0x116 ./../../lib/sys_timer.o
 .debug_abbrev  0x000000000000dda1      0x15d ./../../lib/sys_counter.o
 .debug_abbrev  0x000000000000defe       0xdd ./../../lib/common_charge.o
 .debug_abbrev  0x000000000000dfdb      0x114 ./../../lib/ui_headbar_handle.o
 .debug_abbrev  0x000000000000e0ef      0x19c ./../../lib/message_box.o
 .debug_abbrev  0x000000000000e28b      0x1a1 ./../../lib/alarm_msg_dispatch.o
 .debug_abbrev  0x000000000000e42c       0xe6 ./../../lib/alarm_msg_dispatch2.o
 .debug_abbrev  0x000000000000e512      0x150 ./../../lib/antenna_detect.o
 .debug_abbrev  0x000000000000e662       0xe4 ./../../lib/common_phy_volume_deal.o
 .debug_abbrev  0x000000000000e746       0xaa ./../../lib/common_phy_volume_table.o
 .debug_abbrev  0x000000000000e7f0      0x1ee ./../../lib/common_keytone_play.o

.debug_info     0x0000000000000000    0xdaa1a
 .debug_info    0x0000000000000000      0x954 ./../../lib/applib_globe_data.o
 .debug_info    0x0000000000000954     0x1859 ./../../lib/applib_app_data.o
 .debug_info    0x00000000000021ad      0xbea ./obj/music_playing_show_lyric.o
 .debug_info    0x0000000000002d97       0x5f ./../../../psp_rel/lib/api.a(libc_op_entry.o)
 .debug_info    0x0000000000002df6       0x5d ./../../../psp_rel/lib/api.a(ui_op_entry.o)
 .debug_info    0x0000000000002e53     0x283d ./obj/music_control.o
 .debug_info    0x0000000000005690      0x3f8 ./../../lib/app_timer_rcode.o
 .debug_info    0x0000000000005a88      0xefa ./../../lib/message_rcode.o
 .debug_info    0x0000000000006982     0x3490 ./obj/music_main.o
 .debug_info    0x0000000000009e12      0xa65 ./../../../psp_rel/lib/lib_enhanced/eh_rdata.o
 .debug_info    0x000000000000a877      0x3ae ./../../../psp_rel/lib/lib_enhanced/eh_fsel_rdata.o
 .debug_info    0x000000000000ac25      0x3f8 ./../../../psp_rel/lib/lib_enhanced/eh_bs_rdata.o
 .debug_info    0x000000000000b01d      0x1a4 ./../../../psp_rel/lib/lib_enhanced/eh_id3_rdata.o
 .debug_info    0x000000000000b1c1      0x234 ./../../../psp_rel/lib/lib_enhanced/eh_lrc_get_rdata.o
 .debug_info    0x000000000000b3f5     0x1f2c ./obj/music_setmenu_soundset_param.o
 .debug_info    0x000000000000d321     0x2e68 ./../../lib/common_ui_data.o
 .debug_info    0x0000000000010189      0x6a0 ./../../lib/common_func_data.o
 .debug_info    0x0000000000010829      0x326 ./../../../psp_rel/lib/ctor.o
 .debug_info    0x0000000000010b4f     0x2b7b ./obj/music_scene_playing.o
 .debug_info    0x00000000000136ca     0x1f96 ./obj/music_scene_playing_sub.o
 .debug_info    0x0000000000015660     0x2488 ./obj/music_playing_playdeal_sub.o
 .debug_info    0x0000000000017ae8     0x2d51 ./obj/music_playing_playdeal.o
 .debug_info    0x000000000001a839     0x17ca ./obj/music_playing_paint.o
 .debug_info    0x000000000001c003     0x4175 ./obj/music_playing_keymsg.o
 .debug_info    0x0000000000020178     0x15d3 ./obj/music_playing_getid3.o
 .debug_info    0x000000000002174b     0x232e ./obj/music_scene_listmenu.o
 .debug_info    0x0000000000023a79     0x1dfd ./obj/music_listmenu_listmenu.o
 .debug_info    0x0000000000025876     0x2dfe ./obj/music_listmenu_menusure.o
 .debug_info    0x0000000000028674     0x17ba ./obj/music_listmenu_menuoption.o
 .debug_info    0x0000000000029e2e     0x1d49 ./obj/music_listmenu_optionitem.o
 .debug_info    0x000000000002bb77     0x24ac ./obj/music_listmenu_listoption.o
 .debug_info    0x000000000002e023     0x1f1e ./obj/music_scene_setmenu.o
 .debug_info    0x000000000002ff41     0x29cd ./obj/music_setmenu_playmode.o
 .debug_info    0x000000000003290e     0x1ce1 ./obj/music_setmenu_soundset.o
 .debug_info    0x00000000000345ef     0x27b5 ./obj/music_setmenu_otheritem.o
 .debug_info    0x0000000000036da4     0x20b5 ./obj/music_setmenu_audible.o
 .debug_info    0x0000000000038e59     0x16aa ./obj/music_setmenu_favordeal.o
 .debug_info    0x000000000003a503     0x1a5a ./obj/music_setmenu_show_cue.o
 .debug_info    0x000000000003bf5d     0x1460 ./obj/music_ape_cue.o
 .debug_info    0x000000000003d3bd     0x2d57 ./obj/music_add_favorite.o
 .debug_info    0x0000000000040114     0x41ea ./obj/music_add_favorite_sub.o
 .debug_info    0x00000000000442fe     0x2650 ./obj/music_del_favorite.o
 .debug_info    0x000000000004694e     0x2aaa ./obj/music_control_bank.o
 .debug_info    0x00000000000493f8      0x700 ./obj/music_creat_albumart_file.o
 .debug_info    0x0000000000049af8     0x16ba ./obj/music_menu_config.o
 .debug_info    0x000000000004b1b2      0xd53 ./obj/music_audible_sys.o
 .debug_info    0x000000000004bf05      0xf2d ./obj/music_setmenu_bookmark_deal_sub.o
 .debug_info    0x000000000004ce32      0xaf4 ./obj/music_setmenu_bookmark_deal.o
 .debug_info    0x000000000004d926      0xadd ./obj/music_del_bookmark.o
 .debug_info    0x000000000004e403      0x7ac ./obj/music_create_bookmark.o
 .debug_info    0x000000000004ebaf     0x42b5 ./obj/music_setmenu_show_bookmark.o
 .debug_info    0x0000000000052e64     0x14d8 ./obj/music_setmenu_bookmark.o
 .debug_info    0x000000000005433c     0x1cd7 ./obj/music_clear_favorite.o
 .debug_info    0x0000000000056013      0xd31 ./obj/music_listmenu_albumlist.o
 .debug_info    0x0000000000056d44      0xa6c ./obj/music_setmenu_bookmark_rw.o
 .debug_info    0x00000000000577b0      0x888 ./../../../psp_rel/lib/lib_enhanced/eh_module.o
 .debug_info    0x0000000000058038       0x67 ./../../../psp_rel/lib/api.a(audio_device_op_entry.o)
 .debug_info    0x000000000005809f       0x5e ./../../../psp_rel/lib/api.a(key_op_entry.o)
 .debug_info    0x00000000000580fd       0x5e ./../../../psp_rel/lib/api.a(lcd_op_entry.o)
 .debug_info    0x000000000005815b       0x5c ./../../../psp_rel/lib/api.a(mmm_id_cmd.o)
 .debug_info    0x00000000000581b7       0x5e ./../../../psp_rel/lib/api.a(sys_op_entry.o)
 .debug_info    0x0000000000058215       0x5e ./../../../psp_rel/lib/api.a(vfs_op_entry.o)
 .debug_info    0x0000000000058273       0x88 ./../../../psp_rel/lib/api.a(base_op_entry.o)
 .debug_info    0x00000000000582fb      0xa47 ./../../../psp_rel/lib/lib_enhanced/eh_change_location.o
 .debug_info    0x0000000000058d42      0xae6 ./../../../psp_rel/lib/lib_enhanced/eh_fav_operation.o
 .debug_info    0x0000000000059828      0xb80 ./../../../psp_rel/lib/lib_enhanced/eh_change_fav_location.o
 .debug_info    0x000000000005a3a8      0x840 ./../../../psp_rel/lib/lib_enhanced/eh_make_listlayer.o
 .debug_info    0x000000000005abe8      0xa55 ./../../../psp_rel/lib/lib_enhanced/eh_bs_entry.o
 .debug_info    0x000000000005b63d      0x9a5 ./../../../psp_rel/lib/lib_enhanced/eh_bs_function.o
 .debug_info    0x000000000005bfe2      0x8b8 ./../../../psp_rel/lib/lib_enhanced/eh_id3_entry.o
 .debug_info    0x000000000005c89a      0x1e9 ./../../../psp_rel/lib/lib_enhanced/eh_id3_aac.o
 .debug_info    0x000000000005ca83      0x857 ./../../../psp_rel/lib/lib_enhanced/eh_id3_function.o
 .debug_info    0x000000000005d2da      0x625 ./../../../psp_rel/lib/lib_enhanced/eh_lyric_get.o
 .debug_info    0x000000000005d8ff      0x817 ./../../../psp_rel/lib/lib_enhanced/eh_fsel_entry.o
 .debug_info    0x000000000005e116      0xcc1 ./../../../psp_rel/lib/lib_enhanced/eh_fsel_function.o
 .debug_info    0x000000000005edd7      0x42f ./../../../psp_rel/lib/lib_enhanced/eh_cue_load.o
 .debug_info    0x000000000005f206      0xbbd ./../../../psp_rel/lib/lib_enhanced/eh_module_sub.o
 .debug_info    0x000000000005fdc3      0x735 ./../../../psp_rel/lib/lib_enhanced/eh_fav_operation_sub.o
 .debug_info    0x00000000000604f8      0xaba ./../../../psp_rel/lib/lib_enhanced/eh_change_location_sub.o
 .debug_info    0x0000000000060fb2      0x84a ./../../../psp_rel/lib/lib_enhanced/eh_fav_operation_sub2.o
 .debug_info    0x00000000000617fc      0x81e ./../../../psp_rel/lib/lib_enhanced/eh_make_listlayer_sub.o
 .debug_info    0x000000000006201a      0xfd2 ./../../../psp_rel/lib/lib_enhanced/eh_bs_directory.o
 .debug_info    0x0000000000062fec      0x996 ./../../../psp_rel/lib/lib_enhanced/eh_bs_directory_func.o
 .debug_info    0x0000000000063982      0xa26 ./../../../psp_rel/lib/lib_enhanced/eh_bs_favorite.o
 .debug_info    0x00000000000643a8      0xbf8 ./../../../psp_rel/lib/lib_enhanced/eh_bs_favorite_func.o
 .debug_info    0x0000000000064fa0      0xbab ./../../../psp_rel/lib/lib_enhanced/eh_bs_playlist.o
 .debug_info    0x0000000000065b4b      0x92f ./../../../psp_rel/lib/lib_enhanced/eh_bs_playlist_func.o
 .debug_info    0x000000000006647a      0xd4b ./../../../psp_rel/lib/lib_enhanced/eh_bs_playlist_del.o
 .debug_info    0x00000000000671c5      0x3bf ./../../../psp_rel/lib/lib_enhanced/eh_bs_other_deal.o
 .debug_info    0x0000000000067584      0xe43 ./../../../psp_rel/lib/lib_enhanced/eh_bs_playlist2.o
 .debug_info    0x00000000000683c7      0x1b3 ./../../../psp_rel/lib/lib_enhanced/eh_bs_function_sub.o
 .debug_info    0x000000000006857a      0xcc1 ./../../../psp_rel/lib/lib_enhanced/eh_bs_browser.o
 .debug_info    0x000000000006923b      0xc9b ./../../../psp_rel/lib/lib_enhanced/eh_bs_browser_func.o
 .debug_info    0x0000000000069ed6      0x516 ./../../../psp_rel/lib/lib_enhanced/eh_id3_mp3_v1.o
 .debug_info    0x000000000006a3ec      0x8f0 ./../../../psp_rel/lib/lib_enhanced/eh_id3_mp3_v2.o
 .debug_info    0x000000000006acdc      0xa1a ./../../../psp_rel/lib/lib_enhanced/eh_id3_wma.o
 .debug_info    0x000000000006b6f6      0x859 ./../../../psp_rel/lib/lib_enhanced/eh_id3_ape.o
 .debug_info    0x000000000006bf4f      0x771 ./../../../psp_rel/lib/lib_enhanced/eh_id3_flac.o
 .debug_info    0x000000000006c6c0      0x7aa ./../../../psp_rel/lib/lib_enhanced/eh_id3_ogg.o
 .debug_info    0x000000000006ce6a      0x78f ./../../../psp_rel/lib/lib_enhanced/eh_id3_aa.o
 .debug_info    0x000000000006d5f9      0x86a ./../../../psp_rel/lib/lib_enhanced/eh_id3_aax.o
 .debug_info    0x000000000006de63      0x1b6 ./../../../psp_rel/lib/lib_enhanced/eh_id3_function_sub.o
 .debug_info    0x000000000006e019      0x3b5 ./../../../psp_rel/lib/lib_enhanced/eh_id3_utf8_deal.o
 .debug_info    0x000000000006e3ce      0xa04 ./../../../psp_rel/lib/lib_enhanced/eh_fsel_directory_next.o
 .debug_info    0x000000000006edd2      0x56c ./../../../psp_rel/lib/lib_enhanced/eh_fsel_directory_prev.o
 .debug_info    0x000000000006f33e      0x690 ./../../../psp_rel/lib/lib_enhanced/eh_fsel_directory_func.o
 .debug_info    0x000000000006f9ce      0x9f8 ./../../../psp_rel/lib/lib_enhanced/eh_fsel_favorite_sel.o
 .debug_info    0x00000000000703c6      0x1e5 ./../../../psp_rel/lib/lib_enhanced/eh_fsel_favorite_func.o
 .debug_info    0x00000000000705ab      0x803 ./../../../psp_rel/lib/lib_enhanced/eh_fsel_shuffle.o
 .debug_info    0x0000000000070dae      0x9ea ./../../../psp_rel/lib/lib_enhanced/eh_fsel_playlist_sel.o
 .debug_info    0x0000000000071798      0xdd8 ./../../../psp_rel/lib/lib_enhanced/eh_fsel_playlist_func.o
 .debug_info    0x0000000000072570      0x1b4 ./../../../psp_rel/lib/lib_enhanced/eh_fsel_playlist_del.o
 .debug_info    0x0000000000072724      0x1b1 ./../../../psp_rel/lib/lib_enhanced/eh_fsel_shuffle2.o
 .debug_info    0x00000000000728d5      0x1b9 ./../../../psp_rel/lib/lib_enhanced/eh_fsel_function_sub.o
 .debug_info    0x0000000000072a8e      0x694 ./../../../psp_rel/lib/lib_enhanced/eh_fsel_browser_prev.o
 .debug_info    0x0000000000073122      0x9ed ./../../../psp_rel/lib/lib_enhanced/eh_fsel_browser_next.o
 .debug_info    0x0000000000073b0f      0xcd3 ./../../../psp_rel/lib/lib_enhanced/eh_fsel_browser_function.o
 .debug_info    0x00000000000747e2      0x4ff ./../../../psp_rel/lib/lib_enhanced/eh_cue_load_sub1.o
 .debug_info    0x0000000000074ce1      0x4b1 ./../../../psp_rel/lib/lib_enhanced/eh_cue_load_sub2.o
 .debug_info    0x0000000000075192     0x472c ./../../lib/ui_directory.o
 .debug_info    0x00000000000798be     0x40fe ./../../lib/ui_menulist.o
 .debug_info    0x000000000007d9bc     0x2276 ./../../lib/ui_menulist2.o
 .debug_info    0x000000000007fc32     0x3fb5 ./../../lib/ui_menulist_simple.o
 .debug_info    0x0000000000083be7     0x3d04 ./../../lib/ui_directory2.o
 .debug_info    0x00000000000878eb     0x3d7c ./../../lib/ui_parameter.o
 .debug_info    0x000000000008b667     0x3dc0 ./../../lib/ui_textread.o
 .debug_info    0x000000000008f427     0x1078 ./../../lib/setting_comval.o
 .debug_info    0x000000000009049f      0xf9d ./../../lib/common_setdae_init.o
 .debug_info    0x000000000009143c      0x537 ./../../lib/app_manager_bank.o
 .debug_info    0x0000000000091973      0x619 ./../../lib/app_timer_bank.o
 .debug_info    0x0000000000091f8c     0x1e39 ./../../lib/ui_headbar.o
 .debug_info    0x0000000000093dc5      0xa5a ./../../lib/message_bank_init.o
 .debug_info    0x000000000009481f      0x693 ./../../lib/message_bank_send.o
 .debug_info    0x0000000000094eb2      0x48f ./../../lib/message_bank_broadcast.o
 .debug_info    0x0000000000095341      0x499 ./../../lib/common_config.o
 .debug_info    0x00000000000957da     0x2365 ./../../lib/common_msgmap_data.o
 .debug_info    0x0000000000097b3f     0x22d0 ./../../lib/common_msgmap.o
 .debug_info    0x0000000000099e0f     0x18b0 ./../../lib/common_confmenu.o
 .debug_info    0x000000000009b6bf      0x91e ./../../lib/common_history.o
 .debug_info    0x000000000009bfdd      0x7f1 ./../../lib/common_string.o
 .debug_info    0x000000000009c7ce      0x94f ./../../lib/common_string2.o
 .debug_info    0x000000000009d11d     0x104e ./../../lib/common_key.o
 .debug_info    0x000000000009e16b     0x28e1 ./../../lib/common_msg.o
 .debug_info    0x00000000000a0a4c      0xa20 ./../../lib/common_sound.o
 .debug_info    0x00000000000a146c     0x1f0f ./../../lib/ui_directory_sub.o
 .debug_info    0x00000000000a337b     0x25c8 ./../../lib/ui_directory_sub2.o
 .debug_info    0x00000000000a5943     0x1e96 ./../../lib/ui_menulist_sub.o
 .debug_info    0x00000000000a77d9     0x3596 ./../../lib/ui_menulist_sub2.o
 .debug_info    0x00000000000aad6f      0xb45 ./../../lib/ui_textread_dec.o
 .debug_info    0x00000000000ab8b4      0x88a ./../../lib/ui_textread_sub.o
 .debug_info    0x00000000000ac13e     0x3fa3 ./../../lib/ui_delete.o
 .debug_info    0x00000000000b00e1     0x3be7 ./../../lib/ui_delete_sub.o
 .debug_info    0x00000000000b3cc8     0x3a76 ./../../lib/ui_keylock.o
 .debug_info    0x00000000000b773e     0x3801 ./../../lib/ui_shutoff.o
 .debug_info    0x00000000000baf3f     0x2076 ./../../lib/ui_screensave.o
 .debug_info    0x00000000000bcfb5      0xd84 ./../../lib/ui_screensave_sub.o
 .debug_info    0x00000000000bdd39     0x372d ./../../lib/ui_animation.o
 .debug_info    0x00000000000c1466     0x3f76 ./../../lib/ui_volumebar.o
 .debug_info    0x00000000000c53dc      0xf69 ./../../lib/ui_volumebar_sub.o
 .debug_info    0x00000000000c6345     0x3b4d ./../../lib/ui_dialog.o
 .debug_info    0x00000000000c9e92     0x3c92 ./../../lib/ui_usbconnect.o
 .debug_info    0x00000000000cdb24      0x93b ./../../lib/miscellaneous.o
 .debug_info    0x00000000000ce45f     0x31d0 ./../../lib/app_sleep.o
 .debug_info    0x00000000000d162f      0x76d ./../../lib/sys_timer.o
 .debug_info    0x00000000000d1d9c      0x7d0 ./../../lib/sys_counter.o
 .debug_info    0x00000000000d256c      0x79a ./../../lib/common_charge.o
 .debug_info    0x00000000000d2d06      0x544 ./../../lib/ui_headbar_handle.o
 .debug_info    0x00000000000d324a     0x36e9 ./../../lib/message_box.o
 .debug_info    0x00000000000d6933     0x1e88 ./../../lib/alarm_msg_dispatch.o
 .debug_info    0x00000000000d87bb      0x73a ./../../lib/alarm_msg_dispatch2.o
 .debug_info    0x00000000000d8ef5      0xae5 ./../../lib/antenna_detect.o
 .debug_info    0x00000000000d99da      0x395 ./../../lib/common_phy_volume_deal.o
 .debug_info    0x00000000000d9d6f      0x33c ./../../lib/common_phy_volume_table.o
 .debug_info    0x00000000000da0ab      0x96f ./../../lib/common_keytone_play.o

.debug_line     0x0000000000000000     0xfbbb
 .debug_line    0x0000000000000000       0xdd ./../../lib/applib_globe_data.o
 .debug_line    0x00000000000000dd       0xd4 ./../../lib/applib_app_data.o
 .debug_line    0x00000000000001b1      0x1c5 ./obj/music_playing_show_lyric.o
 .debug_line    0x0000000000000376       0x3d ./../../../psp_rel/lib/api.a(libc_op_entry.o)
 .debug_line    0x00000000000003b3       0x3b ./../../../psp_rel/lib/api.a(ui_op_entry.o)
 .debug_line    0x00000000000003ee      0x1f6 ./obj/music_control.o
 .debug_line    0x00000000000005e4       0xce ./../../lib/app_timer_rcode.o
 .debug_line    0x00000000000006b2      0x10d ./../../lib/message_rcode.o
 .debug_line    0x00000000000007bf      0x234 ./obj/music_main.o
 .debug_line    0x00000000000009f3       0xea ./../../../psp_rel/lib/lib_enhanced/eh_rdata.o
 .debug_line    0x0000000000000add       0x89 ./../../../psp_rel/lib/lib_enhanced/eh_fsel_rdata.o
 .debug_line    0x0000000000000b66       0x93 ./../../../psp_rel/lib/lib_enhanced/eh_bs_rdata.o
 .debug_line    0x0000000000000bf9       0x5b ./../../../psp_rel/lib/lib_enhanced/eh_id3_rdata.o
 .debug_line    0x0000000000000c54       0x8b ./../../../psp_rel/lib/lib_enhanced/eh_lrc_get_rdata.o
 .debug_line    0x0000000000000cdf      0x18a ./obj/music_setmenu_soundset_param.o
 .debug_line    0x0000000000000e69      0x14c ./../../lib/common_ui_data.o
 .debug_line    0x0000000000000fb5       0xbb ./../../lib/common_func_data.o
 .debug_line    0x0000000000001070       0xcf ./../../../psp_rel/lib/ctor.o
 .debug_line    0x000000000000113f      0x20d ./obj/music_scene_playing.o
 .debug_line    0x000000000000134c      0x14f ./obj/music_scene_playing_sub.o
 .debug_line    0x000000000000149b      0x1c4 ./obj/music_playing_playdeal_sub.o
 .debug_line    0x000000000000165f      0x229 ./obj/music_playing_playdeal.o
 .debug_line    0x0000000000001888      0x220 ./obj/music_playing_paint.o
 .debug_line    0x0000000000001aa8      0x1f3 ./obj/music_playing_keymsg.o
 .debug_line    0x0000000000001c9b      0x1f3 ./obj/music_playing_getid3.o
 .debug_line    0x0000000000001e8e      0x1ef ./obj/music_scene_listmenu.o
 .debug_line    0x000000000000207d      0x147 ./obj/music_listmenu_listmenu.o
 .debug_line    0x00000000000021c4      0x25a ./obj/music_listmenu_menusure.o
 .debug_line    0x000000000000241e      0x136 ./obj/music_listmenu_menuoption.o
 .debug_line    0x0000000000002554      0x160 ./obj/music_listmenu_optionitem.o
 .debug_line    0x00000000000026b4      0x217 ./obj/music_listmenu_listoption.o
 .debug_line    0x00000000000028cb      0x15b ./obj/music_scene_setmenu.o
 .debug_line    0x0000000000002a26      0x1ec ./obj/music_setmenu_playmode.o
 .debug_line    0x0000000000002c12      0x1ac ./obj/music_setmenu_soundset.o
 .debug_line    0x0000000000002dbe      0x1ab ./obj/music_setmenu_otheritem.o
 .debug_line    0x0000000000002f69      0x193 ./obj/music_setmenu_audible.o
 .debug_line    0x00000000000030fc      0x10e ./obj/music_setmenu_favordeal.o
 .debug_line    0x000000000000320a      0x119 ./obj/music_setmenu_show_cue.o
 .debug_line    0x0000000000003323       0xe6 ./obj/music_ape_cue.o
 .debug_line    0x0000000000003409      0x222 ./obj/music_add_favorite.o
 .debug_line    0x000000000000362b      0x1ae ./obj/music_add_favorite_sub.o
 .debug_line    0x00000000000037d9      0x204 ./obj/music_del_favorite.o
 .debug_line    0x00000000000039dd      0x214 ./obj/music_control_bank.o
 .debug_line    0x0000000000003bf1      0x126 ./obj/music_creat_albumart_file.o
 .debug_line    0x0000000000003d17       0xd0 ./obj/music_menu_config.o
 .debug_line    0x0000000000003de7      0x146 ./obj/music_audible_sys.o
 .debug_line    0x0000000000003f2d      0x18d ./obj/music_setmenu_bookmark_deal_sub.o
 .debug_line    0x00000000000040ba      0x19c ./obj/music_setmenu_bookmark_deal.o
 .debug_line    0x0000000000004256      0x16c ./obj/music_del_bookmark.o
 .debug_line    0x00000000000043c2      0x13e ./obj/music_create_bookmark.o
 .debug_line    0x0000000000004500      0x20e ./obj/music_setmenu_show_bookmark.o
 .debug_line    0x000000000000470e       0xf3 ./obj/music_setmenu_bookmark.o
 .debug_line    0x0000000000004801      0x16b ./obj/music_clear_favorite.o
 .debug_line    0x000000000000496c      0x1ba ./obj/music_listmenu_albumlist.o
 .debug_line    0x0000000000004b26      0x14e ./obj/music_setmenu_bookmark_rw.o
 .debug_line    0x0000000000004c74      0x17d ./../../../psp_rel/lib/lib_enhanced/eh_module.o
 .debug_line    0x0000000000004df1       0x45 ./../../../psp_rel/lib/api.a(audio_device_op_entry.o)
 .debug_line    0x0000000000004e36       0x3c ./../../../psp_rel/lib/api.a(key_op_entry.o)
 .debug_line    0x0000000000004e72       0x3c ./../../../psp_rel/lib/api.a(lcd_op_entry.o)
 .debug_line    0x0000000000004eae       0x3a ./../../../psp_rel/lib/api.a(mmm_id_cmd.o)
 .debug_line    0x0000000000004ee8       0x3c ./../../../psp_rel/lib/api.a(sys_op_entry.o)
 .debug_line    0x0000000000004f24       0x3c ./../../../psp_rel/lib/api.a(vfs_op_entry.o)
 .debug_line    0x0000000000004f60       0x66 ./../../../psp_rel/lib/api.a(base_op_entry.o)
 .debug_line    0x0000000000004fc6      0x17f ./../../../psp_rel/lib/lib_enhanced/eh_change_location.o
 .debug_line    0x0000000000005145      0x1d9 ./../../../psp_rel/lib/lib_enhanced/eh_fav_operation.o
 .debug_line    0x000000000000531e      0x184 ./../../../psp_rel/lib/lib_enhanced/eh_change_fav_location.o
 .debug_line    0x00000000000054a2      0x170 ./../../../psp_rel/lib/lib_enhanced/eh_make_listlayer.o
 .debug_line    0x0000000000005612      0x270 ./../../../psp_rel/lib/lib_enhanced/eh_bs_entry.o
 .debug_line    0x0000000000005882      0x2d3 ./../../../psp_rel/lib/lib_enhanced/eh_bs_function.o
 .debug_line    0x0000000000005b55      0x1ba ./../../../psp_rel/lib/lib_enhanced/eh_id3_entry.o
 .debug_line    0x0000000000005d0f      0x121 ./../../../psp_rel/lib/lib_enhanced/eh_id3_aac.o
 .debug_line    0x0000000000005e30      0x176 ./../../../psp_rel/lib/lib_enhanced/eh_id3_function.o
 .debug_line    0x0000000000005fa6      0x186 ./../../../psp_rel/lib/lib_enhanced/eh_lyric_get.o
 .debug_line    0x000000000000612c      0x27c ./../../../psp_rel/lib/lib_enhanced/eh_fsel_entry.o
 .debug_line    0x00000000000063a8      0x1da ./../../../psp_rel/lib/lib_enhanced/eh_fsel_function.o
 .debug_line    0x0000000000006582      0x162 ./../../../psp_rel/lib/lib_enhanced/eh_cue_load.o
 .debug_line    0x00000000000066e4      0x1ad ./../../../psp_rel/lib/lib_enhanced/eh_module_sub.o
 .debug_line    0x0000000000006891      0x14e ./../../../psp_rel/lib/lib_enhanced/eh_fav_operation_sub.o
 .debug_line    0x00000000000069df      0x1de ./../../../psp_rel/lib/lib_enhanced/eh_change_location_sub.o
 .debug_line    0x0000000000006bbd      0x18a ./../../../psp_rel/lib/lib_enhanced/eh_fav_operation_sub2.o
 .debug_line    0x0000000000006d47      0x14d ./../../../psp_rel/lib/lib_enhanced/eh_make_listlayer_sub.o
 .debug_line    0x0000000000006e94      0x208 ./../../../psp_rel/lib/lib_enhanced/eh_bs_directory.o
 .debug_line    0x000000000000709c      0x20a ./../../../psp_rel/lib/lib_enhanced/eh_bs_directory_func.o
 .debug_line    0x00000000000072a6      0x1cb ./../../../psp_rel/lib/lib_enhanced/eh_bs_favorite.o
 .debug_line    0x0000000000007471      0x1dc ./../../../psp_rel/lib/lib_enhanced/eh_bs_favorite_func.o
 .debug_line    0x000000000000764d      0x384 ./../../../psp_rel/lib/lib_enhanced/eh_bs_playlist.o
 .debug_line    0x00000000000079d1      0x356 ./../../../psp_rel/lib/lib_enhanced/eh_bs_playlist_func.o
 .debug_line    0x0000000000007d27      0x203 ./../../../psp_rel/lib/lib_enhanced/eh_bs_playlist_del.o
 .debug_line    0x0000000000007f2a      0x13f ./../../../psp_rel/lib/lib_enhanced/eh_bs_other_deal.o
 .debug_line    0x0000000000008069      0x222 ./../../../psp_rel/lib/lib_enhanced/eh_bs_playlist2.o
 .debug_line    0x000000000000828b       0x70 ./../../../psp_rel/lib/lib_enhanced/eh_bs_function_sub.o
 .debug_line    0x00000000000082fb      0x21c ./../../../psp_rel/lib/lib_enhanced/eh_bs_browser.o
 .debug_line    0x0000000000008517      0x1e9 ./../../../psp_rel/lib/lib_enhanced/eh_bs_browser_func.o
 .debug_line    0x0000000000008700      0x15d ./../../../psp_rel/lib/lib_enhanced/eh_id3_mp3_v1.o
 .debug_line    0x000000000000885d      0x1e6 ./../../../psp_rel/lib/lib_enhanced/eh_id3_mp3_v2.o
 .debug_line    0x0000000000008a43      0x1e5 ./../../../psp_rel/lib/lib_enhanced/eh_id3_wma.o
 .debug_line    0x0000000000008c28      0x1d5 ./../../../psp_rel/lib/lib_enhanced/eh_id3_ape.o
 .debug_line    0x0000000000008dfd      0x18e ./../../../psp_rel/lib/lib_enhanced/eh_id3_flac.o
 .debug_line    0x0000000000008f8b      0x1b6 ./../../../psp_rel/lib/lib_enhanced/eh_id3_ogg.o
 .debug_line    0x0000000000009141      0x1b7 ./../../../psp_rel/lib/lib_enhanced/eh_id3_aa.o
 .debug_line    0x00000000000092f8      0x1be ./../../../psp_rel/lib/lib_enhanced/eh_id3_aax.o
 .debug_line    0x00000000000094b6       0x72 ./../../../psp_rel/lib/lib_enhanced/eh_id3_function_sub.o
 .debug_line    0x0000000000009528      0x121 ./../../../psp_rel/lib/lib_enhanced/eh_id3_utf8_deal.o
 .debug_line    0x0000000000009649      0x21e ./../../../psp_rel/lib/lib_enhanced/eh_fsel_directory_next.o
 .debug_line    0x0000000000009867      0x1a9 ./../../../psp_rel/lib/lib_enhanced/eh_fsel_directory_prev.o
 .debug_line    0x0000000000009a10      0x19e ./../../../psp_rel/lib/lib_enhanced/eh_fsel_directory_func.o
 .debug_line    0x0000000000009bae      0x239 ./../../../psp_rel/lib/lib_enhanced/eh_fsel_favorite_sel.o
 .debug_line    0x0000000000009de7       0xd6 ./../../../psp_rel/lib/lib_enhanced/eh_fsel_favorite_func.o
 .debug_line    0x0000000000009ebd      0x216 ./../../../psp_rel/lib/lib_enhanced/eh_fsel_shuffle.o
 .debug_line    0x000000000000a0d3      0x1f8 ./../../../psp_rel/lib/lib_enhanced/eh_fsel_playlist_sel.o
 .debug_line    0x000000000000a2cb      0x1e8 ./../../../psp_rel/lib/lib_enhanced/eh_fsel_playlist_func.o
 .debug_line    0x000000000000a4b3       0x74 ./../../../psp_rel/lib/lib_enhanced/eh_fsel_playlist_del.o
 .debug_line    0x000000000000a527       0x70 ./../../../psp_rel/lib/lib_enhanced/eh_fsel_shuffle2.o
 .debug_line    0x000000000000a597       0x74 ./../../../psp_rel/lib/lib_enhanced/eh_fsel_function_sub.o
 .debug_line    0x000000000000a60b      0x1d2 ./../../../psp_rel/lib/lib_enhanced/eh_fsel_browser_prev.o
 .debug_line    0x000000000000a7dd      0x21d ./../../../psp_rel/lib/lib_enhanced/eh_fsel_browser_next.o
 .debug_line    0x000000000000a9fa      0x213 ./../../../psp_rel/lib/lib_enhanced/eh_fsel_browser_function.o
 .debug_line    0x000000000000ac0d      0x17c ./../../../psp_rel/lib/lib_enhanced/eh_cue_load_sub1.o
 .debug_line    0x000000000000ad89      0x174 ./../../../psp_rel/lib/lib_enhanced/eh_cue_load_sub2.o
 .debug_line    0x000000000000aefd      0x1e5 ./../../lib/ui_directory.o
 .debug_line    0x000000000000b0e2      0x1a2 ./../../lib/ui_menulist.o
 .debug_line    0x000000000000b284      0x1b4 ./../../lib/ui_menulist2.o
 .debug_line    0x000000000000b438      0x1b4 ./../../lib/ui_menulist_simple.o
 .debug_line    0x000000000000b5ec      0x1bb ./../../lib/ui_directory2.o
 .debug_line    0x000000000000b7a7      0x1c6 ./../../lib/ui_parameter.o
 .debug_line    0x000000000000b96d      0x1bc ./../../lib/ui_textread.o
 .debug_line    0x000000000000bb29      0x12e ./../../lib/setting_comval.o
 .debug_line    0x000000000000bc57      0x12d ./../../lib/common_setdae_init.o
 .debug_line    0x000000000000bd84      0x115 ./../../lib/app_manager_bank.o
 .debug_line    0x000000000000be99      0x131 ./../../lib/app_timer_bank.o
 .debug_line    0x000000000000bfca      0x18a ./../../lib/ui_headbar.o
 .debug_line    0x000000000000c154       0xe4 ./../../lib/message_bank_init.o
 .debug_line    0x000000000000c238      0x11b ./../../lib/message_bank_send.o
 .debug_line    0x000000000000c353       0xe3 ./../../lib/message_bank_broadcast.o
 .debug_line    0x000000000000c436      0x115 ./../../lib/common_config.o
 .debug_line    0x000000000000c54b       0xde ./../../lib/common_msgmap_data.o
 .debug_line    0x000000000000c629      0x107 ./../../lib/common_msgmap.o
 .debug_line    0x000000000000c730      0x139 ./../../lib/common_confmenu.o
 .debug_line    0x000000000000c869      0x163 ./../../lib/common_history.o
 .debug_line    0x000000000000c9cc      0x148 ./../../lib/common_string.o
 .debug_line    0x000000000000cb14      0x161 ./../../lib/common_string2.o
 .debug_line    0x000000000000cc75      0x167 ./../../lib/common_key.o
 .debug_line    0x000000000000cddc      0x172 ./../../lib/common_msg.o
 .debug_line    0x000000000000cf4e      0x176 ./../../lib/common_sound.o
 .debug_line    0x000000000000d0c4      0x1be ./../../lib/ui_directory_sub.o
 .debug_line    0x000000000000d282      0x1ab ./../../lib/ui_directory_sub2.o
 .debug_line    0x000000000000d42d      0x184 ./../../lib/ui_menulist_sub.o
 .debug_line    0x000000000000d5b1      0x19b ./../../lib/ui_menulist_sub2.o
 .debug_line    0x000000000000d74c      0x17c ./../../lib/ui_textread_dec.o
 .debug_line    0x000000000000d8c8      0x117 ./../../lib/ui_textread_sub.o
 .debug_line    0x000000000000d9df      0x1b7 ./../../lib/ui_delete.o
 .debug_line    0x000000000000db96      0x16e ./../../lib/ui_delete_sub.o
 .debug_line    0x000000000000dd04      0x1a3 ./../../lib/ui_keylock.o
 .debug_line    0x000000000000dea7      0x164 ./../../lib/ui_shutoff.o
 .debug_line    0x000000000000e00b      0x1af ./../../lib/ui_screensave.o
 .debug_line    0x000000000000e1ba      0x157 ./../../lib/ui_screensave_sub.o
 .debug_line    0x000000000000e311      0x17b ./../../lib/ui_animation.o
 .debug_line    0x000000000000e48c      0x1d5 ./../../lib/ui_volumebar.o
 .debug_line    0x000000000000e661      0x161 ./../../lib/ui_volumebar_sub.o
 .debug_line    0x000000000000e7c2      0x19f ./../../lib/ui_dialog.o
 .debug_line    0x000000000000e961      0x1b3 ./../../lib/ui_usbconnect.o
 .debug_line    0x000000000000eb14      0x109 ./../../lib/miscellaneous.o
 .debug_line    0x000000000000ec1d      0x112 ./../../lib/app_sleep.o
 .debug_line    0x000000000000ed2f      0x10f ./../../lib/sys_timer.o
 .debug_line    0x000000000000ee3e      0x1fa ./../../lib/sys_counter.o
 .debug_line    0x000000000000f038      0x113 ./../../lib/common_charge.o
 .debug_line    0x000000000000f14b      0x172 ./../../lib/ui_headbar_handle.o
 .debug_line    0x000000000000f2bd      0x1a4 ./../../lib/message_box.o
 .debug_line    0x000000000000f461      0x1a6 ./../../lib/alarm_msg_dispatch.o
 .debug_line    0x000000000000f607      0x12e ./../../lib/alarm_msg_dispatch2.o
 .debug_line    0x000000000000f735      0x121 ./../../lib/antenna_detect.o
 .debug_line    0x000000000000f856       0xe0 ./../../lib/common_phy_volume_deal.o
 .debug_line    0x000000000000f936       0xc1 ./../../lib/common_phy_volume_table.o
 .debug_line    0x000000000000f9f7      0x1c4 ./../../lib/common_keytone_play.o

.debug_pubnames
                0x0000000000000000     0x5a65
 .debug_pubnames
                0x0000000000000000       0xb4 ./../../lib/applib_globe_data.o
 .debug_pubnames
                0x00000000000000b4       0x99 ./../../lib/applib_app_data.o
 .debug_pubnames
                0x000000000000014d       0xad ./obj/music_playing_show_lyric.o
 .debug_pubnames
                0x00000000000001fa      0x176 ./obj/music_control.o
 .debug_pubnames
                0x0000000000000370       0x24 ./../../lib/app_timer_rcode.o
 .debug_pubnames
                0x0000000000000394       0x42 ./../../lib/message_rcode.o
 .debug_pubnames
                0x00000000000003d6      0x374 ./obj/music_main.o
 .debug_pubnames
                0x000000000000074a      0x328 ./../../../psp_rel/lib/lib_enhanced/eh_rdata.o
 .debug_pubnames
                0x0000000000000a72      0x13e ./../../../psp_rel/lib/lib_enhanced/eh_fsel_rdata.o
 .debug_pubnames
                0x0000000000000bb0       0xa5 ./../../../psp_rel/lib/lib_enhanced/eh_bs_rdata.o
 .debug_pubnames
                0x0000000000000c55       0x21 ./../../../psp_rel/lib/lib_enhanced/eh_id3_rdata.o
 .debug_pubnames
                0x0000000000000c76       0x69 ./../../../psp_rel/lib/lib_enhanced/eh_lrc_get_rdata.o
 .debug_pubnames
                0x0000000000000cdf      0x118 ./obj/music_setmenu_soundset_param.o
 .debug_pubnames
                0x0000000000000df7      0x3fe ./../../lib/common_ui_data.o
 .debug_pubnames
                0x00000000000011f5       0xbd ./../../lib/common_func_data.o
 .debug_pubnames
                0x00000000000012b2       0x30 ./../../../psp_rel/lib/ctor.o
 .debug_pubnames
                0x00000000000012e2       0x95 ./obj/music_scene_playing.o
 .debug_pubnames
                0x0000000000001377       0x34 ./obj/music_scene_playing_sub.o
 .debug_pubnames
                0x00000000000013ab       0x54 ./obj/music_playing_playdeal_sub.o
 .debug_pubnames
                0x00000000000013ff       0x6f ./obj/music_playing_playdeal.o
 .debug_pubnames
                0x000000000000146e       0x6e ./obj/music_playing_paint.o
 .debug_pubnames
                0x00000000000014dc      0x15c ./obj/music_playing_keymsg.o
 .debug_pubnames
                0x0000000000001638       0xb9 ./obj/music_playing_getid3.o
 .debug_pubnames
                0x00000000000016f1       0x67 ./obj/music_scene_listmenu.o
 .debug_pubnames
                0x0000000000001758       0x6d ./obj/music_listmenu_listmenu.o
 .debug_pubnames
                0x00000000000017c5      0x247 ./obj/music_listmenu_menusure.o
 .debug_pubnames
                0x0000000000001a0c       0xdc ./obj/music_listmenu_menuoption.o
 .debug_pubnames
                0x0000000000001ae8      0x11d ./obj/music_listmenu_optionitem.o
 .debug_pubnames
                0x0000000000001c05      0x249 ./obj/music_listmenu_listoption.o
 .debug_pubnames
                0x0000000000001e4e       0x82 ./obj/music_scene_setmenu.o
 .debug_pubnames
                0x0000000000001ed0      0x1f6 ./obj/music_setmenu_playmode.o
 .debug_pubnames
                0x00000000000020c6      0x1c4 ./obj/music_setmenu_soundset.o
 .debug_pubnames
                0x000000000000228a       0xb6 ./obj/music_setmenu_otheritem.o
 .debug_pubnames
                0x0000000000002340       0xdc ./obj/music_setmenu_audible.o
 .debug_pubnames
                0x000000000000241c       0xdc ./obj/music_setmenu_favordeal.o
 .debug_pubnames
                0x00000000000024f8       0x52 ./obj/music_setmenu_show_cue.o
 .debug_pubnames
                0x000000000000254a       0x41 ./obj/music_ape_cue.o
 .debug_pubnames
                0x000000000000258b       0xf1 ./obj/music_add_favorite.o
 .debug_pubnames
                0x000000000000267c       0x43 ./obj/music_add_favorite_sub.o
 .debug_pubnames
                0x00000000000026bf       0xc9 ./obj/music_del_favorite.o
 .debug_pubnames
                0x0000000000002788      0x10b ./obj/music_control_bank.o
 .debug_pubnames
                0x0000000000002893       0x30 ./obj/music_creat_albumart_file.o
 .debug_pubnames
                0x00000000000028c3       0x51 ./obj/music_menu_config.o
 .debug_pubnames
                0x0000000000002914       0x65 ./obj/music_audible_sys.o
 .debug_pubnames
                0x0000000000002979       0x3c ./obj/music_setmenu_bookmark_deal_sub.o
 .debug_pubnames
                0x00000000000029b5       0x38 ./obj/music_setmenu_bookmark_deal.o
 .debug_pubnames
                0x00000000000029ed       0x43 ./obj/music_del_bookmark.o
 .debug_pubnames
                0x0000000000002a30       0x2b ./obj/music_create_bookmark.o
 .debug_pubnames
                0x0000000000002a5b      0x10d ./obj/music_setmenu_show_bookmark.o
 .debug_pubnames
                0x0000000000002b68       0x72 ./obj/music_setmenu_bookmark.o
 .debug_pubnames
                0x0000000000002bda       0x3e ./obj/music_clear_favorite.o
 .debug_pubnames
                0x0000000000002c18       0x58 ./obj/music_listmenu_albumlist.o
 .debug_pubnames
                0x0000000000002c70       0x7e ./obj/music_setmenu_bookmark_rw.o
 .debug_pubnames
                0x0000000000002cee       0xe6 ./../../../psp_rel/lib/lib_enhanced/eh_module.o
 .debug_pubnames
                0x0000000000002dd4       0xa1 ./../../../psp_rel/lib/lib_enhanced/eh_change_location.o
 .debug_pubnames
                0x0000000000002e75      0x115 ./../../../psp_rel/lib/lib_enhanced/eh_fav_operation.o
 .debug_pubnames
                0x0000000000002f8a       0x2f ./../../../psp_rel/lib/lib_enhanced/eh_change_fav_location.o
 .debug_pubnames
                0x0000000000002fb9       0x7c ./../../../psp_rel/lib/lib_enhanced/eh_make_listlayer.o
 .debug_pubnames
                0x0000000000003035      0x175 ./../../../psp_rel/lib/lib_enhanced/eh_bs_entry.o
 .debug_pubnames
                0x00000000000031aa       0x5f ./../../../psp_rel/lib/lib_enhanced/eh_bs_function.o
 .debug_pubnames
                0x0000000000003209      0x12c ./../../../psp_rel/lib/lib_enhanced/eh_id3_entry.o
 .debug_pubnames
                0x0000000000003335       0x22 ./../../../psp_rel/lib/lib_enhanced/eh_id3_aac.o
 .debug_pubnames
                0x0000000000003357       0x27 ./../../../psp_rel/lib/lib_enhanced/eh_id3_function.o
 .debug_pubnames
                0x000000000000337e       0xb0 ./../../../psp_rel/lib/lib_enhanced/eh_lyric_get.o
 .debug_pubnames
                0x000000000000342e      0x177 ./../../../psp_rel/lib/lib_enhanced/eh_fsel_entry.o
 .debug_pubnames
                0x00000000000035a5       0x3d ./../../../psp_rel/lib/lib_enhanced/eh_fsel_function.o
 .debug_pubnames
                0x00000000000035e2       0xf7 ./../../../psp_rel/lib/lib_enhanced/eh_cue_load.o
 .debug_pubnames
                0x00000000000036d9       0x3c ./../../../psp_rel/lib/lib_enhanced/eh_module_sub.o
 .debug_pubnames
                0x0000000000003715       0x6d ./../../../psp_rel/lib/lib_enhanced/eh_fav_operation_sub.o
 .debug_pubnames
                0x0000000000003782       0x2e ./../../../psp_rel/lib/lib_enhanced/eh_change_location_sub.o
 .debug_pubnames
                0x00000000000037b0       0x47 ./../../../psp_rel/lib/lib_enhanced/eh_fav_operation_sub2.o
 .debug_pubnames
                0x00000000000037f7       0x2d ./../../../psp_rel/lib/lib_enhanced/eh_make_listlayer_sub.o
 .debug_pubnames
                0x0000000000003824       0x8c ./../../../psp_rel/lib/lib_enhanced/eh_bs_directory.o
 .debug_pubnames
                0x00000000000038b0       0x60 ./../../../psp_rel/lib/lib_enhanced/eh_bs_directory_func.o
 .debug_pubnames
                0x0000000000003910       0x6c ./../../../psp_rel/lib/lib_enhanced/eh_bs_favorite.o
 .debug_pubnames
                0x000000000000397c       0x52 ./../../../psp_rel/lib/lib_enhanced/eh_bs_favorite_func.o
 .debug_pubnames
                0x00000000000039ce       0xd3 ./../../../psp_rel/lib/lib_enhanced/eh_bs_playlist.o
 .debug_pubnames
                0x0000000000003aa1       0x7e ./../../../psp_rel/lib/lib_enhanced/eh_bs_playlist_func.o
 .debug_pubnames
                0x0000000000003b1f       0x47 ./../../../psp_rel/lib/lib_enhanced/eh_bs_playlist_del.o
 .debug_pubnames
                0x0000000000003b66       0x26 ./../../../psp_rel/lib/lib_enhanced/eh_bs_other_deal.o
 .debug_pubnames
                0x0000000000003b8c       0x45 ./../../../psp_rel/lib/lib_enhanced/eh_bs_playlist2.o
 .debug_pubnames
                0x0000000000003bd1       0x5f ./../../../psp_rel/lib/lib_enhanced/eh_bs_browser.o
 .debug_pubnames
                0x0000000000003c30       0x59 ./../../../psp_rel/lib/lib_enhanced/eh_bs_browser_func.o
 .debug_pubnames
                0x0000000000003c89       0x38 ./../../../psp_rel/lib/lib_enhanced/eh_id3_mp3_v1.o
 .debug_pubnames
                0x0000000000003cc1       0x60 ./../../../psp_rel/lib/lib_enhanced/eh_id3_mp3_v2.o
 .debug_pubnames
                0x0000000000003d21       0x22 ./../../../psp_rel/lib/lib_enhanced/eh_id3_wma.o
 .debug_pubnames
                0x0000000000003d43       0x45 ./../../../psp_rel/lib/lib_enhanced/eh_id3_ape.o
 .debug_pubnames
                0x0000000000003d88       0x23 ./../../../psp_rel/lib/lib_enhanced/eh_id3_flac.o
 .debug_pubnames
                0x0000000000003dab       0x56 ./../../../psp_rel/lib/lib_enhanced/eh_id3_ogg.o
 .debug_pubnames
                0x0000000000003e01       0x42 ./../../../psp_rel/lib/lib_enhanced/eh_id3_aa.o
 .debug_pubnames
                0x0000000000003e43       0x36 ./../../../psp_rel/lib/lib_enhanced/eh_id3_aax.o
 .debug_pubnames
                0x0000000000003e79       0x29 ./../../../psp_rel/lib/lib_enhanced/eh_id3_utf8_deal.o
 .debug_pubnames
                0x0000000000003ea2       0x60 ./../../../psp_rel/lib/lib_enhanced/eh_fsel_directory_next.o
 .debug_pubnames
                0x0000000000003f02       0x23 ./../../../psp_rel/lib/lib_enhanced/eh_fsel_directory_prev.o
 .debug_pubnames
                0x0000000000003f25       0x67 ./../../../psp_rel/lib/lib_enhanced/eh_fsel_directory_func.o
 .debug_pubnames
                0x0000000000003f8c       0x7e ./../../../psp_rel/lib/lib_enhanced/eh_fsel_favorite_sel.o
 .debug_pubnames
                0x000000000000400a       0x25 ./../../../psp_rel/lib/lib_enhanced/eh_fsel_favorite_func.o
 .debug_pubnames
                0x000000000000402f       0x4f ./../../../psp_rel/lib/lib_enhanced/eh_fsel_shuffle.o
 .debug_pubnames
                0x000000000000407e       0x68 ./../../../psp_rel/lib/lib_enhanced/eh_fsel_playlist_sel.o
 .debug_pubnames
                0x00000000000040e6       0x52 ./../../../psp_rel/lib/lib_enhanced/eh_fsel_playlist_func.o
 .debug_pubnames
                0x0000000000004138       0x27 ./../../../psp_rel/lib/lib_enhanced/eh_fsel_browser_prev.o
 .debug_pubnames
                0x000000000000415f       0x59 ./../../../psp_rel/lib/lib_enhanced/eh_fsel_browser_next.o
 .debug_pubnames
                0x00000000000041b8      0x15a ./../../../psp_rel/lib/lib_enhanced/eh_fsel_browser_function.o
 .debug_pubnames
                0x0000000000004312       0xab ./../../../psp_rel/lib/lib_enhanced/eh_cue_load_sub1.o
 .debug_pubnames
                0x00000000000043bd       0x5e ./../../../psp_rel/lib/lib_enhanced/eh_cue_load_sub2.o
 .debug_pubnames
                0x000000000000441b       0xcf ./../../lib/ui_directory.o
 .debug_pubnames
                0x00000000000044ea       0x55 ./../../lib/ui_menulist.o
 .debug_pubnames
                0x000000000000453f      0x10d ./../../lib/ui_menulist2.o
 .debug_pubnames
                0x000000000000464c       0x47 ./../../lib/ui_menulist_simple.o
 .debug_pubnames
                0x0000000000004693       0xc3 ./../../lib/ui_directory2.o
 .debug_pubnames
                0x0000000000004756       0x6c ./../../lib/ui_parameter.o
 .debug_pubnames
                0x00000000000047c2       0xc9 ./../../lib/ui_textread.o
 .debug_pubnames
                0x000000000000488b       0x46 ./../../lib/setting_comval.o
 .debug_pubnames
                0x00000000000048d1       0x7a ./../../lib/common_setdae_init.o
 .debug_pubnames
                0x000000000000494b       0x32 ./../../lib/app_manager_bank.o
 .debug_pubnames
                0x000000000000497d       0x89 ./../../lib/app_timer_bank.o
 .debug_pubnames
                0x0000000000004a06       0x54 ./../../lib/ui_headbar.o
 .debug_pubnames
                0x0000000000004a5a       0x2a ./../../lib/message_bank_init.o
 .debug_pubnames
                0x0000000000004a84       0x4a ./../../lib/message_bank_send.o
 .debug_pubnames
                0x0000000000004ace       0x3a ./../../lib/message_bank_broadcast.o
 .debug_pubnames
                0x0000000000004b08       0x60 ./../../lib/common_config.o
 .debug_pubnames
                0x0000000000004b68      0x137 ./../../lib/common_msgmap_data.o
 .debug_pubnames
                0x0000000000004c9f       0x26 ./../../lib/common_msgmap.o
 .debug_pubnames
                0x0000000000004cc5       0xb2 ./../../lib/common_confmenu.o
 .debug_pubnames
                0x0000000000004d77       0xa4 ./../../lib/common_history.o
 .debug_pubnames
                0x0000000000004e1b       0x44 ./../../lib/common_string.o
 .debug_pubnames
                0x0000000000004e5f       0x8f ./../../lib/common_string2.o
 .debug_pubnames
                0x0000000000004eee       0x3f ./../../lib/common_key.o
 .debug_pubnames
                0x0000000000004f2d       0x27 ./../../lib/common_msg.o
 .debug_pubnames
                0x0000000000004f54       0x74 ./../../lib/common_sound.o
 .debug_pubnames
                0x0000000000004fc8       0x87 ./../../lib/ui_directory_sub.o
 .debug_pubnames
                0x000000000000504f       0x71 ./../../lib/ui_directory_sub2.o
 .debug_pubnames
                0x00000000000050c0       0x60 ./../../lib/ui_menulist_sub.o
 .debug_pubnames
                0x0000000000005120       0x44 ./../../lib/ui_menulist_sub2.o
 .debug_pubnames
                0x0000000000005164       0x2b ./../../lib/ui_textread_dec.o
 .debug_pubnames
                0x000000000000518f       0x69 ./../../lib/ui_textread_sub.o
 .debug_pubnames
                0x00000000000051f8       0x53 ./../../lib/ui_delete.o
 .debug_pubnames
                0x000000000000524b       0x37 ./../../lib/ui_delete_sub.o
 .debug_pubnames
                0x0000000000005282       0x4a ./../../lib/ui_keylock.o
 .debug_pubnames
                0x00000000000052cc       0x52 ./../../lib/ui_shutoff.o
 .debug_pubnames
                0x000000000000531e       0x78 ./../../lib/ui_screensave.o
 .debug_pubnames
                0x0000000000005396       0x73 ./../../lib/ui_screensave_sub.o
 .debug_pubnames
                0x0000000000005409       0x31 ./../../lib/ui_animation.o
 .debug_pubnames
                0x000000000000543a       0x6c ./../../lib/ui_volumebar.o
 .debug_pubnames
                0x00000000000054a6       0x3e ./../../lib/ui_volumebar_sub.o
 .debug_pubnames
                0x00000000000054e4       0x58 ./../../lib/ui_dialog.o
 .debug_pubnames
                0x000000000000553c       0xb0 ./../../lib/ui_usbconnect.o
 .debug_pubnames
                0x00000000000055ec       0x89 ./../../lib/miscellaneous.o
 .debug_pubnames
                0x0000000000005675       0x24 ./../../lib/app_sleep.o
 .debug_pubnames
                0x0000000000005699       0x38 ./../../lib/sys_timer.o
 .debug_pubnames
                0x00000000000056d1       0x5c ./../../lib/sys_counter.o
 .debug_pubnames
                0x000000000000572d       0x51 ./../../lib/common_charge.o
 .debug_pubnames
                0x000000000000577e       0x29 ./../../lib/ui_headbar_handle.o
 .debug_pubnames
                0x00000000000057a7       0x26 ./../../lib/message_box.o
 .debug_pubnames
                0x00000000000057cd       0x87 ./../../lib/alarm_msg_dispatch.o
 .debug_pubnames
                0x0000000000005854       0x3a ./../../lib/alarm_msg_dispatch2.o
 .debug_pubnames
                0x000000000000588e       0x3a ./../../lib/antenna_detect.o
 .debug_pubnames
                0x00000000000058c8       0x29 ./../../lib/common_phy_volume_deal.o
 .debug_pubnames
                0x00000000000058f1       0x2a ./../../lib/common_phy_volume_table.o
 .debug_pubnames
                0x000000000000591b      0x14a ./../../lib/common_keytone_play.o

.debug_str      0x0000000000000000     0x78ad
 .debug_str     0x0000000000000000       0x12 ./../../lib/applib_globe_data.o
 .debug_str     0x0000000000000012       0x12 ./../../lib/applib_app_data.o
 .debug_str     0x0000000000000024       0x1b ./obj/music_playing_show_lyric.o
 .debug_str     0x000000000000003f       0xa1 ./obj/music_control.o
 .debug_str     0x00000000000000e0      0x310 ./../../lib/app_timer_rcode.o
                                        0x39c (size before relaxing)
 .debug_str     0x00000000000003f0     0x197f ./../../lib/message_rcode.o
                                       0x1cd4 (size before relaxing)
 .debug_str     0x0000000000001d6f       0xc4 ./obj/music_main.o
 .debug_str     0x0000000000001e33       0x12 ./../../../psp_rel/lib/lib_enhanced/eh_rdata.o
 .debug_str     0x0000000000001e45       0x12 ./../../../psp_rel/lib/lib_enhanced/eh_fsel_rdata.o
 .debug_str     0x0000000000001e57       0x12 ./../../../psp_rel/lib/lib_enhanced/eh_bs_rdata.o
 .debug_str     0x0000000000001e69       0x12 ./../../../psp_rel/lib/lib_enhanced/eh_id3_rdata.o
 .debug_str     0x0000000000001e7b       0x12 ./../../../psp_rel/lib/lib_enhanced/eh_lrc_get_rdata.o
 .debug_str     0x0000000000001e8d       0x2d ./obj/music_setmenu_soundset_param.o
 .debug_str     0x0000000000001eba       0xbe ./../../lib/common_ui_data.o
 .debug_str     0x0000000000001f78       0x12 ./../../lib/common_func_data.o
 .debug_str     0x0000000000001f8a       0x12 ./../../../psp_rel/lib/ctor.o
 .debug_str     0x0000000000001f9c       0xaf ./obj/music_scene_playing.o
 .debug_str     0x000000000000204b       0xb8 ./obj/music_scene_playing_sub.o
 .debug_str     0x0000000000002103       0x7b ./obj/music_playing_playdeal_sub.o
 .debug_str     0x000000000000217e       0x93 ./obj/music_playing_playdeal.o
 .debug_str     0x0000000000002211       0xad ./obj/music_playing_paint.o
 .debug_str     0x00000000000022be       0x8b ./obj/music_playing_keymsg.o
 .debug_str     0x0000000000002349       0x98 ./obj/music_playing_getid3.o
 .debug_str     0x00000000000023e1       0xc2 ./obj/music_scene_listmenu.o
 .debug_str     0x00000000000024a3       0x7b ./obj/music_listmenu_listmenu.o
 .debug_str     0x000000000000251e       0x9d ./obj/music_listmenu_menusure.o
 .debug_str     0x00000000000025bb       0x38 ./obj/music_listmenu_menuoption.o
 .debug_str     0x00000000000025f3       0x81 ./obj/music_listmenu_optionitem.o
 .debug_str     0x0000000000002674       0xed ./obj/music_listmenu_listoption.o
 .debug_str     0x0000000000002761       0x7b ./obj/music_scene_setmenu.o
 .debug_str     0x00000000000027dc       0x8a ./obj/music_setmenu_playmode.o
 .debug_str     0x0000000000002866       0x31 ./obj/music_setmenu_soundset.o
 .debug_str     0x0000000000002897       0x9e ./obj/music_setmenu_otheritem.o
 .debug_str     0x0000000000002935       0x8e ./obj/music_setmenu_audible.o
 .debug_str     0x00000000000029c3       0x18 ./obj/music_setmenu_favordeal.o
 .debug_str     0x00000000000029db       0x12 ./obj/music_setmenu_show_cue.o
 .debug_str     0x00000000000029ed       0x12 ./obj/music_ape_cue.o
 .debug_str     0x00000000000029ff      0x11b ./obj/music_add_favorite.o
 .debug_str     0x0000000000002b1a       0x8f ./obj/music_add_favorite_sub.o
 .debug_str     0x0000000000002ba9       0xca ./obj/music_del_favorite.o
 .debug_str     0x0000000000002c73       0xa4 ./obj/music_control_bank.o
 .debug_str     0x0000000000002d17       0x1d ./obj/music_creat_albumart_file.o
 .debug_str     0x0000000000002d34       0x2f ./obj/music_menu_config.o
 .debug_str     0x0000000000002d63       0x7b ./obj/music_audible_sys.o
 .debug_str     0x0000000000002dde       0x87 ./obj/music_setmenu_bookmark_deal_sub.o
 .debug_str     0x0000000000002e65       0x5b ./obj/music_setmenu_bookmark_deal.o
 .debug_str     0x0000000000002ec0       0x1b ./obj/music_del_bookmark.o
 .debug_str     0x0000000000002edb       0x1e ./obj/music_create_bookmark.o
 .debug_str     0x0000000000002ef9       0xa5 ./obj/music_setmenu_show_bookmark.o
 .debug_str     0x0000000000002f9e       0x12 ./obj/music_setmenu_bookmark.o
 .debug_str     0x0000000000002fb0       0x9a ./obj/music_clear_favorite.o
 .debug_str     0x000000000000304a       0x44 ./obj/music_listmenu_albumlist.o
 .debug_str     0x000000000000308e       0x37 ./obj/music_setmenu_bookmark_rw.o
 .debug_str     0x00000000000030c5       0x25 ./../../../psp_rel/lib/lib_enhanced/eh_module.o
 .debug_str     0x00000000000030ea       0x41 ./../../../psp_rel/lib/lib_enhanced/eh_change_location.o
 .debug_str     0x000000000000312b       0x4a ./../../../psp_rel/lib/lib_enhanced/eh_fav_operation.o
 .debug_str     0x0000000000003175       0x7c ./../../../psp_rel/lib/lib_enhanced/eh_change_fav_location.o
 .debug_str     0x00000000000031f1       0x28 ./../../../psp_rel/lib/lib_enhanced/eh_make_listlayer.o
 .debug_str     0x0000000000003219      0x791 ./../../../psp_rel/lib/lib_enhanced/eh_bs_entry.o
                                        0x8c7 (size before relaxing)
 .debug_str     0x00000000000039aa      0x47d ./../../../psp_rel/lib/lib_enhanced/eh_bs_function.o
                                        0x7e4 (size before relaxing)
 .debug_str     0x0000000000003e27       0x1b ./../../../psp_rel/lib/lib_enhanced/eh_id3_entry.o
 .debug_str     0x0000000000003e42       0x12 ./../../../psp_rel/lib/lib_enhanced/eh_id3_aac.o
 .debug_str     0x0000000000003e54       0x25 ./../../../psp_rel/lib/lib_enhanced/eh_id3_function.o
 .debug_str     0x0000000000003e79       0x25 ./../../../psp_rel/lib/lib_enhanced/eh_lyric_get.o
 .debug_str     0x0000000000003e9e      0x335 ./../../../psp_rel/lib/lib_enhanced/eh_fsel_entry.o
                                        0x818 (size before relaxing)
 .debug_str     0x00000000000041d3       0xb3 ./../../../psp_rel/lib/lib_enhanced/eh_fsel_function.o
 .debug_str     0x0000000000004286       0x12 ./../../../psp_rel/lib/lib_enhanced/eh_cue_load.o
 .debug_str     0x0000000000004298       0x83 ./../../../psp_rel/lib/lib_enhanced/eh_module_sub.o
 .debug_str     0x000000000000431b       0x2d ./../../../psp_rel/lib/lib_enhanced/eh_fav_operation_sub.o
 .debug_str     0x0000000000004348       0x8d ./../../../psp_rel/lib/lib_enhanced/eh_change_location_sub.o
 .debug_str     0x00000000000043d5       0x30 ./../../../psp_rel/lib/lib_enhanced/eh_fav_operation_sub2.o
 .debug_str     0x0000000000004405       0x30 ./../../../psp_rel/lib/lib_enhanced/eh_make_listlayer_sub.o
 .debug_str     0x0000000000004435       0x90 ./../../../psp_rel/lib/lib_enhanced/eh_bs_directory.o
 .debug_str     0x00000000000044c5       0x3f ./../../../psp_rel/lib/lib_enhanced/eh_bs_directory_func.o
 .debug_str     0x0000000000004504       0x40 ./../../../psp_rel/lib/lib_enhanced/eh_bs_favorite.o
 .debug_str     0x0000000000004544       0x3a ./../../../psp_rel/lib/lib_enhanced/eh_bs_favorite_func.o
 .debug_str     0x000000000000457e      0x25d ./../../../psp_rel/lib/lib_enhanced/eh_bs_playlist.o
                                        0x835 (size before relaxing)
 .debug_str     0x00000000000047db      0x117 ./../../../psp_rel/lib/lib_enhanced/eh_bs_playlist_func.o
                                        0x765 (size before relaxing)
 .debug_str     0x00000000000048f2      0x101 ./../../../psp_rel/lib/lib_enhanced/eh_bs_playlist_del.o
 .debug_str     0x00000000000049f3       0x12 ./../../../psp_rel/lib/lib_enhanced/eh_bs_other_deal.o
 .debug_str     0x0000000000004a05       0xdd ./../../../psp_rel/lib/lib_enhanced/eh_bs_playlist2.o
 .debug_str     0x0000000000004ae2       0x12 ./../../../psp_rel/lib/lib_enhanced/eh_bs_function_sub.o
 .debug_str     0x0000000000004af4       0xa5 ./../../../psp_rel/lib/lib_enhanced/eh_bs_browser.o
 .debug_str     0x0000000000004b99       0xa6 ./../../../psp_rel/lib/lib_enhanced/eh_bs_browser_func.o
 .debug_str     0x0000000000004c3f       0x12 ./../../../psp_rel/lib/lib_enhanced/eh_id3_mp3_v1.o
 .debug_str     0x0000000000004c51       0x40 ./../../../psp_rel/lib/lib_enhanced/eh_id3_mp3_v2.o
 .debug_str     0x0000000000004c91       0x12 ./../../../psp_rel/lib/lib_enhanced/eh_id3_wma.o
 .debug_str     0x0000000000004ca3       0x12 ./../../../psp_rel/lib/lib_enhanced/eh_id3_ape.o
 .debug_str     0x0000000000004cb5       0x12 ./../../../psp_rel/lib/lib_enhanced/eh_id3_flac.o
 .debug_str     0x0000000000004cc7       0x1f ./../../../psp_rel/lib/lib_enhanced/eh_id3_ogg.o
 .debug_str     0x0000000000004ce6       0x1d ./../../../psp_rel/lib/lib_enhanced/eh_id3_aa.o
 .debug_str     0x0000000000004d03       0x12 ./../../../psp_rel/lib/lib_enhanced/eh_id3_aax.o
 .debug_str     0x0000000000004d15       0x12 ./../../../psp_rel/lib/lib_enhanced/eh_id3_function_sub.o
 .debug_str     0x0000000000004d27       0x12 ./../../../psp_rel/lib/lib_enhanced/eh_id3_utf8_deal.o
 .debug_str     0x0000000000004d39       0x65 ./../../../psp_rel/lib/lib_enhanced/eh_fsel_directory_next.o
 .debug_str     0x0000000000004d9e       0x1a ./../../../psp_rel/lib/lib_enhanced/eh_fsel_directory_prev.o
 .debug_str     0x0000000000004db8       0x1b ./../../../psp_rel/lib/lib_enhanced/eh_fsel_directory_func.o
 .debug_str     0x0000000000004dd3       0x36 ./../../../psp_rel/lib/lib_enhanced/eh_fsel_favorite_sel.o
 .debug_str     0x0000000000004e09       0x12 ./../../../psp_rel/lib/lib_enhanced/eh_fsel_favorite_func.o
 .debug_str     0x0000000000004e1b       0x24 ./../../../psp_rel/lib/lib_enhanced/eh_fsel_shuffle.o
 .debug_str     0x0000000000004e3f       0x6d ./../../../psp_rel/lib/lib_enhanced/eh_fsel_playlist_sel.o
 .debug_str     0x0000000000004eac      0x109 ./../../../psp_rel/lib/lib_enhanced/eh_fsel_playlist_func.o
 .debug_str     0x0000000000004fb5       0x12 ./../../../psp_rel/lib/lib_enhanced/eh_fsel_playlist_del.o
 .debug_str     0x0000000000004fc7       0x12 ./../../../psp_rel/lib/lib_enhanced/eh_fsel_shuffle2.o
 .debug_str     0x0000000000004fd9       0x12 ./../../../psp_rel/lib/lib_enhanced/eh_fsel_function_sub.o
 .debug_str     0x0000000000004feb       0x37 ./../../../psp_rel/lib/lib_enhanced/eh_fsel_browser_prev.o
 .debug_str     0x0000000000005022       0x62 ./../../../psp_rel/lib/lib_enhanced/eh_fsel_browser_next.o
 .debug_str     0x0000000000005084       0x9d ./../../../psp_rel/lib/lib_enhanced/eh_fsel_browser_function.o
 .debug_str     0x0000000000005121       0x12 ./../../../psp_rel/lib/lib_enhanced/eh_cue_load_sub1.o
 .debug_str     0x0000000000005133       0x12 ./../../../psp_rel/lib/lib_enhanced/eh_cue_load_sub2.o
 .debug_str     0x0000000000005145       0xe6 ./../../lib/ui_directory.o
 .debug_str     0x000000000000522b       0x7a ./../../lib/ui_menulist.o
 .debug_str     0x00000000000052a5       0xb7 ./../../lib/ui_menulist2.o
 .debug_str     0x000000000000535c       0x7a ./../../lib/ui_menulist_simple.o
 .debug_str     0x00000000000053d6       0xb9 ./../../lib/ui_directory2.o
 .debug_str     0x000000000000548f       0x55 ./../../lib/ui_parameter.o
 .debug_str     0x00000000000054e4       0x2f ./../../lib/ui_textread.o
 .debug_str     0x0000000000005513       0x4c ./../../lib/setting_comval.o
 .debug_str     0x000000000000555f       0x3f ./../../lib/common_setdae_init.o
 .debug_str     0x000000000000559e       0xa9 ./../../lib/app_manager_bank.o
                                        0x4a9 (size before relaxing)
 .debug_str     0x0000000000005647       0xf4 ./../../lib/app_timer_bank.o
                                        0x471 (size before relaxing)
 .debug_str     0x000000000000573b       0x2a ./../../lib/ui_headbar.o
 .debug_str     0x0000000000005765      0xc6f ./../../lib/message_bank_init.o
                                       0x10c9 (size before relaxing)
 .debug_str     0x00000000000063d4       0x8d ./../../lib/message_bank_send.o
                                        0x4fc (size before relaxing)
 .debug_str     0x0000000000006461       0x39 ./../../lib/message_bank_broadcast.o
                                        0x402 (size before relaxing)
 .debug_str     0x000000000000649a       0xd3 ./../../lib/common_config.o
                                        0x3f4 (size before relaxing)
 .debug_str     0x000000000000656d       0x12 ./../../lib/common_msgmap_data.o
 .debug_str     0x000000000000657f       0x12 ./../../lib/common_msgmap.o
 .debug_str     0x0000000000006591       0x2b ./../../lib/common_confmenu.o
 .debug_str     0x00000000000065bc       0x43 ./../../lib/common_history.o
 .debug_str     0x00000000000065ff       0x1b ./../../lib/common_string.o
 .debug_str     0x000000000000661a       0x12 ./../../lib/common_string2.o
 .debug_str     0x000000000000662c       0x1f ./../../lib/common_key.o
 .debug_str     0x000000000000664b       0x29 ./../../lib/common_msg.o
 .debug_str     0x0000000000006674       0x46 ./../../lib/common_sound.o
 .debug_str     0x00000000000066ba       0xa7 ./../../lib/ui_directory_sub.o
 .debug_str     0x0000000000006761       0xef ./../../lib/ui_directory_sub2.o
 .debug_str     0x0000000000006850       0x50 ./../../lib/ui_menulist_sub.o
 .debug_str     0x00000000000068a0       0x5e ./../../lib/ui_menulist_sub2.o
 .debug_str     0x00000000000068fe       0x3b ./../../lib/ui_textread_dec.o
 .debug_str     0x0000000000006939       0x1e ./../../lib/ui_textread_sub.o
 .debug_str     0x0000000000006957       0x9f ./../../lib/ui_delete.o
 .debug_str     0x00000000000069f6       0x9e ./../../lib/ui_delete_sub.o
 .debug_str     0x0000000000006a94       0x35 ./../../lib/ui_keylock.o
 .debug_str     0x0000000000006ac9       0x2b ./../../lib/ui_shutoff.o
 .debug_str     0x0000000000006af4       0x12 ./../../lib/ui_screensave.o
 .debug_str     0x0000000000006b06       0x1e ./../../lib/ui_screensave_sub.o
 .debug_str     0x0000000000006b24       0x43 ./../../lib/ui_animation.o
 .debug_str     0x0000000000006b67       0x50 ./../../lib/ui_volumebar.o
 .debug_str     0x0000000000006bb7       0x4c ./../../lib/ui_volumebar_sub.o
 .debug_str     0x0000000000006c03       0x6d ./../../lib/ui_dialog.o
 .debug_str     0x0000000000006c70       0x6d ./../../lib/ui_usbconnect.o
 .debug_str     0x0000000000006cdd       0x1c ./../../lib/miscellaneous.o
 .debug_str     0x0000000000006cf9       0x12 ./../../lib/app_sleep.o
 .debug_str     0x0000000000006d0b       0x12 ./../../lib/sys_timer.o
 .debug_str     0x0000000000006d1d      0x3db ./../../lib/sys_counter.o
                                        0x7cd (size before relaxing)
 .debug_str     0x00000000000070f8       0x12 ./../../lib/common_charge.o
 .debug_str     0x000000000000710a      0x33d ./../../lib/ui_headbar_handle.o
                                        0x646 (size before relaxing)
 .debug_str     0x0000000000007447       0x1e ./../../lib/message_box.o
 .debug_str     0x0000000000007465       0xca ./../../lib/alarm_msg_dispatch.o
 .debug_str     0x000000000000752f       0x12 ./../../lib/alarm_msg_dispatch2.o
 .debug_str     0x0000000000007541       0x12 ./../../lib/antenna_detect.o
 .debug_str     0x0000000000007553       0xcf ./../../lib/common_phy_volume_deal.o
                                        0x384 (size before relaxing)
 .debug_str     0x0000000000007622       0x1a ./../../lib/common_phy_volume_table.o
                                        0x33e (size before relaxing)
 .debug_str     0x000000000000763c      0x271 ./../../lib/common_keytone_play.o
                                        0x745 (size before relaxing)

.comment        0x0000000000000000     0x1bb7
 .comment       0x0000000000000000       0x2b ./../../lib/applib_globe_data.o
 .comment       0x000000000000002b       0x2b ./../../lib/applib_app_data.o
 .comment       0x0000000000000056       0x2b ./obj/music_playing_show_lyric.o
 .comment       0x0000000000000081       0x2b ./obj/music_control.o
 .comment       0x00000000000000ac       0x2b ./../../lib/app_timer_rcode.o
 .comment       0x00000000000000d7       0x2b ./../../lib/message_rcode.o
 .comment       0x0000000000000102       0x2b ./obj/music_main.o
 .comment       0x000000000000012d       0x2b ./../../../psp_rel/lib/lib_enhanced/eh_rdata.o
 .comment       0x0000000000000158       0x2b ./../../../psp_rel/lib/lib_enhanced/eh_fsel_rdata.o
 .comment       0x0000000000000183       0x2b ./../../../psp_rel/lib/lib_enhanced/eh_bs_rdata.o
 .comment       0x00000000000001ae       0x2b ./../../../psp_rel/lib/lib_enhanced/eh_id3_rdata.o
 .comment       0x00000000000001d9       0x2b ./../../../psp_rel/lib/lib_enhanced/eh_lrc_get_rdata.o
 .comment       0x0000000000000204       0x2b ./obj/music_setmenu_soundset_param.o
 .comment       0x000000000000022f       0x2b ./../../lib/common_ui_data.o
 .comment       0x000000000000025a       0x2b ./../../lib/common_func_data.o
 .comment       0x0000000000000285       0x2b ./../../../psp_rel/lib/ctor.o
 .comment       0x00000000000002b0       0x2b ./obj/music_scene_playing.o
 .comment       0x00000000000002db       0x2b ./obj/music_scene_playing_sub.o
 .comment       0x0000000000000306       0x2b ./obj/music_playing_playdeal_sub.o
 .comment       0x0000000000000331       0x2b ./obj/music_playing_playdeal.o
 .comment       0x000000000000035c       0x2b ./obj/music_playing_paint.o
 .comment       0x0000000000000387       0x2b ./obj/music_playing_keymsg.o
 .comment       0x00000000000003b2       0x2b ./obj/music_playing_getid3.o
 .comment       0x00000000000003dd       0x2b ./obj/music_scene_listmenu.o
 .comment       0x0000000000000408       0x2b ./obj/music_listmenu_listmenu.o
 .comment       0x0000000000000433       0x2b ./obj/music_listmenu_menusure.o
 .comment       0x000000000000045e       0x2b ./obj/music_listmenu_menuoption.o
 .comment       0x0000000000000489       0x2b ./obj/music_listmenu_optionitem.o
 .comment       0x00000000000004b4       0x2b ./obj/music_listmenu_listoption.o
 .comment       0x00000000000004df       0x2b ./obj/music_scene_setmenu.o
 .comment       0x000000000000050a       0x2b ./obj/music_setmenu_playmode.o
 .comment       0x0000000000000535       0x2b ./obj/music_setmenu_soundset.o
 .comment       0x0000000000000560       0x2b ./obj/music_setmenu_otheritem.o
 .comment       0x000000000000058b       0x2b ./obj/music_setmenu_audible.o
 .comment       0x00000000000005b6       0x2b ./obj/music_setmenu_favordeal.o
 .comment       0x00000000000005e1       0x2b ./obj/music_setmenu_show_cue.o
 .comment       0x000000000000060c       0x2b ./obj/music_ape_cue.o
 .comment       0x0000000000000637       0x2b ./obj/music_add_favorite.o
 .comment       0x0000000000000662       0x2b ./obj/music_add_favorite_sub.o
 .comment       0x000000000000068d       0x2b ./obj/music_del_favorite.o
 .comment       0x00000000000006b8       0x2b ./obj/music_control_bank.o
 .comment       0x00000000000006e3       0x2b ./obj/music_creat_albumart_file.o
 .comment       0x000000000000070e       0x2b ./obj/music_menu_config.o
 .comment       0x0000000000000739       0x2b ./obj/music_audible_sys.o
 .comment       0x0000000000000764       0x2b ./obj/music_setmenu_bookmark_deal_sub.o
 .comment       0x000000000000078f       0x2b ./obj/music_setmenu_bookmark_deal.o
 .comment       0x00000000000007ba       0x2b ./obj/music_del_bookmark.o
 .comment       0x00000000000007e5       0x2b ./obj/music_create_bookmark.o
 .comment       0x0000000000000810       0x2b ./obj/music_setmenu_show_bookmark.o
 .comment       0x000000000000083b       0x2b ./obj/music_setmenu_bookmark.o
 .comment       0x0000000000000866       0x2b ./obj/music_clear_favorite.o
 .comment       0x0000000000000891       0x2b ./obj/music_listmenu_albumlist.o
 .comment       0x00000000000008bc       0x2b ./obj/music_setmenu_bookmark_rw.o
 .comment       0x00000000000008e7       0x2b ./../../../psp_rel/lib/lib_enhanced/eh_module.o
 .comment       0x0000000000000912       0x2b ./../../../psp_rel/lib/lib_enhanced/eh_change_location.o
 .comment       0x000000000000093d       0x2b ./../../../psp_rel/lib/lib_enhanced/eh_fav_operation.o
 .comment       0x0000000000000968       0x2b ./../../../psp_rel/lib/lib_enhanced/eh_change_fav_location.o
 .comment       0x0000000000000993       0x2b ./../../../psp_rel/lib/lib_enhanced/eh_make_listlayer.o
 .comment       0x00000000000009be       0x2b ./../../../psp_rel/lib/lib_enhanced/eh_bs_entry.o
 .comment       0x00000000000009e9       0x2b ./../../../psp_rel/lib/lib_enhanced/eh_bs_function.o
 .comment       0x0000000000000a14       0x2b ./../../../psp_rel/lib/lib_enhanced/eh_id3_entry.o
 .comment       0x0000000000000a3f       0x2b ./../../../psp_rel/lib/lib_enhanced/eh_id3_aac.o
 .comment       0x0000000000000a6a       0x2b ./../../../psp_rel/lib/lib_enhanced/eh_id3_function.o
 .comment       0x0000000000000a95       0x2b ./../../../psp_rel/lib/lib_enhanced/eh_lyric_get.o
 .comment       0x0000000000000ac0       0x2b ./../../../psp_rel/lib/lib_enhanced/eh_fsel_entry.o
 .comment       0x0000000000000aeb       0x2b ./../../../psp_rel/lib/lib_enhanced/eh_fsel_function.o
 .comment       0x0000000000000b16       0x2b ./../../../psp_rel/lib/lib_enhanced/eh_cue_load.o
 .comment       0x0000000000000b41       0x2b ./../../../psp_rel/lib/lib_enhanced/eh_module_sub.o
 .comment       0x0000000000000b6c       0x2b ./../../../psp_rel/lib/lib_enhanced/eh_fav_operation_sub.o
 .comment       0x0000000000000b97       0x2b ./../../../psp_rel/lib/lib_enhanced/eh_change_location_sub.o
 .comment       0x0000000000000bc2       0x2b ./../../../psp_rel/lib/lib_enhanced/eh_fav_operation_sub2.o
 .comment       0x0000000000000bed       0x2b ./../../../psp_rel/lib/lib_enhanced/eh_make_listlayer_sub.o
 .comment       0x0000000000000c18       0x2b ./../../../psp_rel/lib/lib_enhanced/eh_bs_directory.o
 .comment       0x0000000000000c43       0x2b ./../../../psp_rel/lib/lib_enhanced/eh_bs_directory_func.o
 .comment       0x0000000000000c6e       0x2b ./../../../psp_rel/lib/lib_enhanced/eh_bs_favorite.o
 .comment       0x0000000000000c99       0x2b ./../../../psp_rel/lib/lib_enhanced/eh_bs_favorite_func.o
 .comment       0x0000000000000cc4       0x2b ./../../../psp_rel/lib/lib_enhanced/eh_bs_playlist.o
 .comment       0x0000000000000cef       0x2b ./../../../psp_rel/lib/lib_enhanced/eh_bs_playlist_func.o
 .comment       0x0000000000000d1a       0x2b ./../../../psp_rel/lib/lib_enhanced/eh_bs_playlist_del.o
 .comment       0x0000000000000d45       0x2b ./../../../psp_rel/lib/lib_enhanced/eh_bs_other_deal.o
 .comment       0x0000000000000d70       0x2b ./../../../psp_rel/lib/lib_enhanced/eh_bs_playlist2.o
 .comment       0x0000000000000d9b       0x2b ./../../../psp_rel/lib/lib_enhanced/eh_bs_function_sub.o
 .comment       0x0000000000000dc6       0x2b ./../../../psp_rel/lib/lib_enhanced/eh_bs_browser.o
 .comment       0x0000000000000df1       0x2b ./../../../psp_rel/lib/lib_enhanced/eh_bs_browser_func.o
 .comment       0x0000000000000e1c       0x2b ./../../../psp_rel/lib/lib_enhanced/eh_id3_mp3_v1.o
 .comment       0x0000000000000e47       0x2b ./../../../psp_rel/lib/lib_enhanced/eh_id3_mp3_v2.o
 .comment       0x0000000000000e72       0x2b ./../../../psp_rel/lib/lib_enhanced/eh_id3_wma.o
 .comment       0x0000000000000e9d       0x2b ./../../../psp_rel/lib/lib_enhanced/eh_id3_ape.o
 .comment       0x0000000000000ec8       0x2b ./../../../psp_rel/lib/lib_enhanced/eh_id3_flac.o
 .comment       0x0000000000000ef3       0x2b ./../../../psp_rel/lib/lib_enhanced/eh_id3_ogg.o
 .comment       0x0000000000000f1e       0x2b ./../../../psp_rel/lib/lib_enhanced/eh_id3_aa.o
 .comment       0x0000000000000f49       0x2b ./../../../psp_rel/lib/lib_enhanced/eh_id3_aax.o
 .comment       0x0000000000000f74       0x2b ./../../../psp_rel/lib/lib_enhanced/eh_id3_function_sub.o
 .comment       0x0000000000000f9f       0x2b ./../../../psp_rel/lib/lib_enhanced/eh_id3_utf8_deal.o
 .comment       0x0000000000000fca       0x2b ./../../../psp_rel/lib/lib_enhanced/eh_fsel_directory_next.o
 .comment       0x0000000000000ff5       0x2b ./../../../psp_rel/lib/lib_enhanced/eh_fsel_directory_prev.o
 .comment       0x0000000000001020       0x2b ./../../../psp_rel/lib/lib_enhanced/eh_fsel_directory_func.o
 .comment       0x000000000000104b       0x2b ./../../../psp_rel/lib/lib_enhanced/eh_fsel_favorite_sel.o
 .comment       0x0000000000001076       0x2b ./../../../psp_rel/lib/lib_enhanced/eh_fsel_favorite_func.o
 .comment       0x00000000000010a1       0x2b ./../../../psp_rel/lib/lib_enhanced/eh_fsel_shuffle.o
 .comment       0x00000000000010cc       0x2b ./../../../psp_rel/lib/lib_enhanced/eh_fsel_playlist_sel.o
 .comment       0x00000000000010f7       0x2b ./../../../psp_rel/lib/lib_enhanced/eh_fsel_playlist_func.o
 .comment       0x0000000000001122       0x2b ./../../../psp_rel/lib/lib_enhanced/eh_fsel_playlist_del.o
 .comment       0x000000000000114d       0x2b ./../../../psp_rel/lib/lib_enhanced/eh_fsel_shuffle2.o
 .comment       0x0000000000001178       0x2b ./../../../psp_rel/lib/lib_enhanced/eh_fsel_function_sub.o
 .comment       0x00000000000011a3       0x2b ./../../../psp_rel/lib/lib_enhanced/eh_fsel_browser_prev.o
 .comment       0x00000000000011ce       0x2b ./../../../psp_rel/lib/lib_enhanced/eh_fsel_browser_next.o
 .comment       0x00000000000011f9       0x2b ./../../../psp_rel/lib/lib_enhanced/eh_fsel_browser_function.o
 .comment       0x0000000000001224       0x2b ./../../../psp_rel/lib/lib_enhanced/eh_cue_load_sub1.o
 .comment       0x000000000000124f       0x2b ./../../../psp_rel/lib/lib_enhanced/eh_cue_load_sub2.o
 .comment       0x000000000000127a       0x2b ./../../lib/ui_directory.o
 .comment       0x00000000000012a5       0x2b ./../../lib/ui_menulist.o
 .comment       0x00000000000012d0       0x2b ./../../lib/ui_menulist2.o
 .comment       0x00000000000012fb       0x2b ./../../lib/ui_menulist_simple.o
 .comment       0x0000000000001326       0x2b ./../../lib/ui_directory2.o
 .comment       0x0000000000001351       0x2b ./../../lib/ui_parameter.o
 .comment       0x000000000000137c       0x2b ./../../lib/ui_textread.o
 .comment       0x00000000000013a7       0x2b ./../../lib/setting_comval.o
 .comment       0x00000000000013d2       0x2b ./../../lib/common_setdae_init.o
 .comment       0x00000000000013fd       0x2b ./../../lib/app_manager_bank.o
 .comment       0x0000000000001428       0x2b ./../../lib/app_timer_bank.o
 .comment       0x0000000000001453       0x2b ./../../lib/ui_headbar.o
 .comment       0x000000000000147e       0x2b ./../../lib/message_bank_init.o
 .comment       0x00000000000014a9       0x2b ./../../lib/message_bank_send.o
 .comment       0x00000000000014d4       0x2b ./../../lib/message_bank_broadcast.o
 .comment       0x00000000000014ff       0x2b ./../../lib/common_config.o
 .comment       0x000000000000152a       0x2b ./../../lib/common_msgmap_data.o
 .comment       0x0000000000001555       0x2b ./../../lib/common_msgmap.o
 .comment       0x0000000000001580       0x2b ./../../lib/common_confmenu.o
 .comment       0x00000000000015ab       0x2b ./../../lib/common_history.o
 .comment       0x00000000000015d6       0x2b ./../../lib/common_string.o
 .comment       0x0000000000001601       0x2b ./../../lib/common_string2.o
 .comment       0x000000000000162c       0x2b ./../../lib/common_key.o
 .comment       0x0000000000001657       0x2b ./../../lib/common_msg.o
 .comment       0x0000000000001682       0x2b ./../../lib/common_sound.o
 .comment       0x00000000000016ad       0x2b ./../../lib/ui_directory_sub.o
 .comment       0x00000000000016d8       0x2b ./../../lib/ui_directory_sub2.o
 .comment       0x0000000000001703       0x2b ./../../lib/ui_menulist_sub.o
 .comment       0x000000000000172e       0x2b ./../../lib/ui_menulist_sub2.o
 .comment       0x0000000000001759       0x2b ./../../lib/ui_textread_dec.o
 .comment       0x0000000000001784       0x2b ./../../lib/ui_textread_sub.o
 .comment       0x00000000000017af       0x2b ./../../lib/ui_delete.o
 .comment       0x00000000000017da       0x2b ./../../lib/ui_delete_sub.o
 .comment       0x0000000000001805       0x2b ./../../lib/ui_keylock.o
 .comment       0x0000000000001830       0x2b ./../../lib/ui_shutoff.o
 .comment       0x000000000000185b       0x2b ./../../lib/ui_screensave.o
 .comment       0x0000000000001886       0x2b ./../../lib/ui_screensave_sub.o
 .comment       0x00000000000018b1       0x2b ./../../lib/ui_animation.o
 .comment       0x00000000000018dc       0x2b ./../../lib/ui_volumebar.o
 .comment       0x0000000000001907       0x2b ./../../lib/ui_volumebar_sub.o
 .comment       0x0000000000001932       0x2b ./../../lib/ui_dialog.o
 .comment       0x000000000000195d       0x2b ./../../lib/ui_usbconnect.o
 .comment       0x0000000000001988       0x2b ./../../lib/miscellaneous.o
 .comment       0x00000000000019b3       0x2b ./../../lib/app_sleep.o
 .comment       0x00000000000019de       0x2b ./../../lib/sys_timer.o
 .comment       0x0000000000001a09       0x2b ./../../lib/sys_counter.o
 .comment       0x0000000000001a34       0x2b ./../../lib/common_charge.o
 .comment       0x0000000000001a5f       0x2b ./../../lib/ui_headbar_handle.o
 .comment       0x0000000000001a8a       0x2b ./../../lib/message_box.o
 .comment       0x0000000000001ab5       0x2b ./../../lib/alarm_msg_dispatch.o
 .comment       0x0000000000001ae0       0x2b ./../../lib/alarm_msg_dispatch2.o
 .comment       0x0000000000001b0b       0x2b ./../../lib/antenna_detect.o
 .comment       0x0000000000001b36       0x2b ./../../lib/common_phy_volume_deal.o
 .comment       0x0000000000001b61       0x2b ./../../lib/common_phy_volume_table.o
 .comment       0x0000000000001b8c       0x2b ./../../lib/common_keytone_play.o

.debug_frame    0x0000000000000000     0x7c98
 .debug_frame   0x0000000000000000       0xdc ./obj/music_playing_show_lyric.o
 .debug_frame   0x00000000000000dc      0x264 ./obj/music_control.o
 .debug_frame   0x0000000000000340       0x34 ./../../lib/app_timer_rcode.o
 .debug_frame   0x0000000000000374       0x74 ./../../lib/message_rcode.o
 .debug_frame   0x00000000000003e8      0x12c ./obj/music_main.o
 .debug_frame   0x0000000000000514      0x194 ./obj/music_setmenu_soundset_param.o
 .debug_frame   0x00000000000006a8       0x58 ./../../../psp_rel/lib/ctor.o
 .debug_frame   0x0000000000000700      0x160 ./obj/music_scene_playing.o
 .debug_frame   0x0000000000000860       0x34 ./obj/music_scene_playing_sub.o
 .debug_frame   0x0000000000000894       0x98 ./obj/music_playing_playdeal_sub.o
 .debug_frame   0x000000000000092c       0xd8 ./obj/music_playing_playdeal.o
 .debug_frame   0x0000000000000a04       0xa0 ./obj/music_playing_paint.o
 .debug_frame   0x0000000000000aa4      0x1e4 ./obj/music_playing_keymsg.o
 .debug_frame   0x0000000000000c88      0x104 ./obj/music_playing_getid3.o
 .debug_frame   0x0000000000000d8c       0xc4 ./obj/music_scene_listmenu.o
 .debug_frame   0x0000000000000e50       0x7c ./obj/music_listmenu_listmenu.o
 .debug_frame   0x0000000000000ecc      0x2f4 ./obj/music_listmenu_menusure.o
 .debug_frame   0x00000000000011c0       0xfc ./obj/music_listmenu_menuoption.o
 .debug_frame   0x00000000000012bc      0x12c ./obj/music_listmenu_optionitem.o
 .debug_frame   0x00000000000013e8      0x2bc ./obj/music_listmenu_listoption.o
 .debug_frame   0x00000000000016a4       0xac ./obj/music_scene_setmenu.o
 .debug_frame   0x0000000000001750      0x25c ./obj/music_setmenu_playmode.o
 .debug_frame   0x00000000000019ac      0x290 ./obj/music_setmenu_soundset.o
 .debug_frame   0x0000000000001c3c       0xd0 ./obj/music_setmenu_otheritem.o
 .debug_frame   0x0000000000001d0c       0xe0 ./obj/music_setmenu_audible.o
 .debug_frame   0x0000000000001dec      0x104 ./obj/music_setmenu_favordeal.o
 .debug_frame   0x0000000000001ef0       0x64 ./obj/music_setmenu_show_cue.o
 .debug_frame   0x0000000000001f54       0x48 ./obj/music_ape_cue.o
 .debug_frame   0x0000000000001f9c      0x178 ./obj/music_add_favorite.o
 .debug_frame   0x0000000000002114       0xb4 ./obj/music_add_favorite_sub.o
 .debug_frame   0x00000000000021c8      0x128 ./obj/music_del_favorite.o
 .debug_frame   0x00000000000022f0      0x1b8 ./obj/music_control_bank.o
 .debug_frame   0x00000000000024a8       0x74 ./obj/music_creat_albumart_file.o
 .debug_frame   0x000000000000251c       0x74 ./obj/music_audible_sys.o
 .debug_frame   0x0000000000002590       0x58 ./obj/music_setmenu_bookmark_deal_sub.o
 .debug_frame   0x00000000000025e8       0xa0 ./obj/music_setmenu_bookmark_deal.o
 .debug_frame   0x0000000000002688       0x58 ./obj/music_del_bookmark.o
 .debug_frame   0x00000000000026e0       0x5c ./obj/music_create_bookmark.o
 .debug_frame   0x000000000000273c      0x120 ./obj/music_setmenu_show_bookmark.o
 .debug_frame   0x000000000000285c       0x7c ./obj/music_setmenu_bookmark.o
 .debug_frame   0x00000000000028d8       0x74 ./obj/music_clear_favorite.o
 .debug_frame   0x000000000000294c       0xc8 ./obj/music_listmenu_albumlist.o
 .debug_frame   0x0000000000002a14       0xe8 ./obj/music_setmenu_bookmark_rw.o
 .debug_frame   0x0000000000002afc      0x14c ./../../../psp_rel/lib/lib_enhanced/eh_module.o
 .debug_frame   0x0000000000002c48       0x9c ./../../../psp_rel/lib/lib_enhanced/eh_change_location.o
 .debug_frame   0x0000000000002ce4      0x10c ./../../../psp_rel/lib/lib_enhanced/eh_fav_operation.o
 .debug_frame   0x0000000000002df0       0x58 ./../../../psp_rel/lib/lib_enhanced/eh_change_fav_location.o
 .debug_frame   0x0000000000002e48       0x78 ./../../../psp_rel/lib/lib_enhanced/eh_make_listlayer.o
 .debug_frame   0x0000000000002ec0      0x164 ./../../../psp_rel/lib/lib_enhanced/eh_bs_entry.o
 .debug_frame   0x0000000000003024       0x9c ./../../../psp_rel/lib/lib_enhanced/eh_bs_function.o
 .debug_frame   0x00000000000030c0       0xe4 ./../../../psp_rel/lib/lib_enhanced/eh_id3_entry.o
 .debug_frame   0x00000000000031a4       0x34 ./../../../psp_rel/lib/lib_enhanced/eh_id3_aac.o
 .debug_frame   0x00000000000031d8       0xe0 ./../../../psp_rel/lib/lib_enhanced/eh_id3_function.o
 .debug_frame   0x00000000000032b8      0x120 ./../../../psp_rel/lib/lib_enhanced/eh_lyric_get.o
 .debug_frame   0x00000000000033d8      0x178 ./../../../psp_rel/lib/lib_enhanced/eh_fsel_entry.o
 .debug_frame   0x0000000000003550       0xe4 ./../../../psp_rel/lib/lib_enhanced/eh_fsel_function.o
 .debug_frame   0x0000000000003634       0xc8 ./../../../psp_rel/lib/lib_enhanced/eh_cue_load.o
 .debug_frame   0x00000000000036fc       0xbc ./../../../psp_rel/lib/lib_enhanced/eh_module_sub.o
 .debug_frame   0x00000000000037b8       0xa0 ./../../../psp_rel/lib/lib_enhanced/eh_fav_operation_sub.o
 .debug_frame   0x0000000000003858       0xa8 ./../../../psp_rel/lib/lib_enhanced/eh_change_location_sub.o
 .debug_frame   0x0000000000003900       0x90 ./../../../psp_rel/lib/lib_enhanced/eh_fav_operation_sub2.o
 .debug_frame   0x0000000000003990       0x5c ./../../../psp_rel/lib/lib_enhanced/eh_make_listlayer_sub.o
 .debug_frame   0x00000000000039ec      0x10c ./../../../psp_rel/lib/lib_enhanced/eh_bs_directory.o
 .debug_frame   0x0000000000003af8      0x104 ./../../../psp_rel/lib/lib_enhanced/eh_bs_directory_func.o
 .debug_frame   0x0000000000003bfc       0xe8 ./../../../psp_rel/lib/lib_enhanced/eh_bs_favorite.o
 .debug_frame   0x0000000000003ce4       0xe8 ./../../../psp_rel/lib/lib_enhanced/eh_bs_favorite_func.o
 .debug_frame   0x0000000000003dcc      0x124 ./../../../psp_rel/lib/lib_enhanced/eh_bs_playlist.o
 .debug_frame   0x0000000000003ef0       0xc8 ./../../../psp_rel/lib/lib_enhanced/eh_bs_playlist_func.o
 .debug_frame   0x0000000000003fb8      0x178 ./../../../psp_rel/lib/lib_enhanced/eh_bs_playlist_del.o
 .debug_frame   0x0000000000004130       0x58 ./../../../psp_rel/lib/lib_enhanced/eh_bs_other_deal.o
 .debug_frame   0x0000000000004188      0x130 ./../../../psp_rel/lib/lib_enhanced/eh_bs_playlist2.o
 .debug_frame   0x00000000000042b8       0x2c ./../../../psp_rel/lib/lib_enhanced/eh_bs_function_sub.o
 .debug_frame   0x00000000000042e4      0x154 ./../../../psp_rel/lib/lib_enhanced/eh_bs_browser.o
 .debug_frame   0x0000000000004438      0x154 ./../../../psp_rel/lib/lib_enhanced/eh_bs_browser_func.o
 .debug_frame   0x000000000000458c       0x58 ./../../../psp_rel/lib/lib_enhanced/eh_id3_mp3_v1.o
 .debug_frame   0x00000000000045e4       0xe0 ./../../../psp_rel/lib/lib_enhanced/eh_id3_mp3_v2.o
 .debug_frame   0x00000000000046c4       0xd8 ./../../../psp_rel/lib/lib_enhanced/eh_id3_wma.o
 .debug_frame   0x000000000000479c       0xa0 ./../../../psp_rel/lib/lib_enhanced/eh_id3_ape.o
 .debug_frame   0x000000000000483c       0xe0 ./../../../psp_rel/lib/lib_enhanced/eh_id3_flac.o
 .debug_frame   0x000000000000491c       0xbc ./../../../psp_rel/lib/lib_enhanced/eh_id3_ogg.o
 .debug_frame   0x00000000000049d8       0xb4 ./../../../psp_rel/lib/lib_enhanced/eh_id3_aa.o
 .debug_frame   0x0000000000004a8c       0xb4 ./../../../psp_rel/lib/lib_enhanced/eh_id3_aax.o
 .debug_frame   0x0000000000004b40       0x2c ./../../../psp_rel/lib/lib_enhanced/eh_id3_function_sub.o
 .debug_frame   0x0000000000004b6c       0x50 ./../../../psp_rel/lib/lib_enhanced/eh_id3_utf8_deal.o
 .debug_frame   0x0000000000004bbc      0x110 ./../../../psp_rel/lib/lib_enhanced/eh_fsel_directory_next.o
 .debug_frame   0x0000000000004ccc       0xa4 ./../../../psp_rel/lib/lib_enhanced/eh_fsel_directory_prev.o
 .debug_frame   0x0000000000004d70       0xd0 ./../../../psp_rel/lib/lib_enhanced/eh_fsel_directory_func.o
 .debug_frame   0x0000000000004e40      0x178 ./../../../psp_rel/lib/lib_enhanced/eh_fsel_favorite_sel.o
 .debug_frame   0x0000000000004fb8       0x2c ./../../../psp_rel/lib/lib_enhanced/eh_fsel_favorite_func.o
 .debug_frame   0x0000000000004fe4      0x180 ./../../../psp_rel/lib/lib_enhanced/eh_fsel_shuffle.o
 .debug_frame   0x0000000000005164      0x154 ./../../../psp_rel/lib/lib_enhanced/eh_fsel_playlist_sel.o
 .debug_frame   0x00000000000052b8      0x130 ./../../../psp_rel/lib/lib_enhanced/eh_fsel_playlist_func.o
 .debug_frame   0x00000000000053e8       0x2c ./../../../psp_rel/lib/lib_enhanced/eh_fsel_playlist_del.o
 .debug_frame   0x0000000000005414       0x2c ./../../../psp_rel/lib/lib_enhanced/eh_fsel_shuffle2.o
 .debug_frame   0x0000000000005440       0x2c ./../../../psp_rel/lib/lib_enhanced/eh_fsel_function_sub.o
 .debug_frame   0x000000000000546c       0xc8 ./../../../psp_rel/lib/lib_enhanced/eh_fsel_browser_prev.o
 .debug_frame   0x0000000000005534       0xe8 ./../../../psp_rel/lib/lib_enhanced/eh_fsel_browser_next.o
 .debug_frame   0x000000000000561c      0x1d4 ./../../../psp_rel/lib/lib_enhanced/eh_fsel_browser_function.o
 .debug_frame   0x00000000000057f0       0x9c ./../../../psp_rel/lib/lib_enhanced/eh_cue_load_sub1.o
 .debug_frame   0x000000000000588c       0x34 ./../../../psp_rel/lib/lib_enhanced/eh_cue_load_sub2.o
 .debug_frame   0x00000000000058c0      0x17c ./../../lib/ui_directory.o
 .debug_frame   0x0000000000005a3c       0xf4 ./../../lib/ui_menulist.o
 .debug_frame   0x0000000000005b30      0x198 ./../../lib/ui_menulist2.o
 .debug_frame   0x0000000000005cc8      0x13c ./../../lib/ui_menulist_simple.o
 .debug_frame   0x0000000000005e04       0xc0 ./../../lib/ui_directory2.o
 .debug_frame   0x0000000000005ec4       0xd8 ./../../lib/ui_parameter.o
 .debug_frame   0x0000000000005f9c       0x90 ./../../lib/ui_textread.o
 .debug_frame   0x000000000000602c       0x60 ./../../lib/setting_comval.o
 .debug_frame   0x000000000000608c       0xa8 ./../../lib/common_setdae_init.o
 .debug_frame   0x0000000000006134       0x58 ./../../lib/app_manager_bank.o
 .debug_frame   0x000000000000618c       0xa8 ./../../lib/app_timer_bank.o
 .debug_frame   0x0000000000006234       0xd4 ./../../lib/ui_headbar.o
 .debug_frame   0x0000000000006308       0x34 ./../../lib/message_bank_init.o
 .debug_frame   0x000000000000633c       0x80 ./../../lib/message_bank_send.o
 .debug_frame   0x00000000000063bc       0x58 ./../../lib/message_bank_broadcast.o
 .debug_frame   0x0000000000006414       0x78 ./../../lib/common_config.o
 .debug_frame   0x000000000000648c       0x2c ./../../lib/common_msgmap.o
 .debug_frame   0x00000000000064b8       0xec ./../../lib/common_confmenu.o
 .debug_frame   0x00000000000065a4       0xe8 ./../../lib/common_history.o
 .debug_frame   0x000000000000668c       0x50 ./../../lib/common_string.o
 .debug_frame   0x00000000000066dc       0xbc ./../../lib/common_string2.o
 .debug_frame   0x0000000000006798      0x158 ./../../lib/common_key.o
 .debug_frame   0x00000000000068f0      0x130 ./../../lib/common_msg.o
 .debug_frame   0x0000000000006a20      0x148 ./../../lib/common_sound.o
 .debug_frame   0x0000000000006b68       0xb4 ./../../lib/ui_directory_sub.o
 .debug_frame   0x0000000000006c1c       0x98 ./../../lib/ui_directory_sub2.o
 .debug_frame   0x0000000000006cb4       0x6c ./../../lib/ui_menulist_sub.o
 .debug_frame   0x0000000000006d20       0x74 ./../../lib/ui_menulist_sub2.o
 .debug_frame   0x0000000000006d94       0x74 ./../../lib/ui_textread_dec.o
 .debug_frame   0x0000000000006e08       0x7c ./../../lib/ui_textread_sub.o
 .debug_frame   0x0000000000006e84       0xbc ./../../lib/ui_delete.o
 .debug_frame   0x0000000000006f40       0x58 ./../../lib/ui_delete_sub.o
 .debug_frame   0x0000000000006f98       0xe4 ./../../lib/ui_keylock.o
 .debug_frame   0x000000000000707c       0xb4 ./../../lib/ui_shutoff.o
 .debug_frame   0x0000000000007130      0x178 ./../../lib/ui_screensave.o
 .debug_frame   0x00000000000072a8       0xb4 ./../../lib/ui_screensave_sub.o
 .debug_frame   0x000000000000735c       0xb4 ./../../lib/ui_animation.o
 .debug_frame   0x0000000000007410       0xd0 ./../../lib/ui_volumebar.o
 .debug_frame   0x00000000000074e0       0x58 ./../../lib/ui_volumebar_sub.o
 .debug_frame   0x0000000000007538       0xb4 ./../../lib/ui_dialog.o
 .debug_frame   0x00000000000075ec       0xfc ./../../lib/ui_usbconnect.o
 .debug_frame   0x00000000000076e8       0x90 ./../../lib/miscellaneous.o
 .debug_frame   0x0000000000007778       0x34 ./../../lib/app_sleep.o
 .debug_frame   0x00000000000077ac       0x90 ./../../lib/sys_timer.o
 .debug_frame   0x000000000000783c       0x64 ./../../lib/sys_counter.o
 .debug_frame   0x00000000000078a0       0x50 ./../../lib/common_charge.o
 .debug_frame   0x00000000000078f0       0x30 ./../../lib/ui_headbar_handle.o
 .debug_frame   0x0000000000007920       0x88 ./../../lib/message_box.o
 .debug_frame   0x00000000000079a8       0xc4 ./../../lib/alarm_msg_dispatch.o
 .debug_frame   0x0000000000007a6c       0x48 ./../../lib/alarm_msg_dispatch2.o
 .debug_frame   0x0000000000007ab4       0x74 ./../../lib/antenna_detect.o
 .debug_frame   0x0000000000007b28       0x28 ./../../lib/common_phy_volume_deal.o
 .debug_frame   0x0000000000007b50      0x148 ./../../lib/common_keytone_play.o

.debug_aranges  0x0000000000000000     0x1440
 .debug_aranges
                0x0000000000000000       0x20 ./obj/music_playing_show_lyric.o
 .debug_aranges
                0x0000000000000020       0x20 ./../../../psp_rel/lib/api.a(libc_op_entry.o)
 .debug_aranges
                0x0000000000000040       0x20 ./../../../psp_rel/lib/api.a(ui_op_entry.o)
 .debug_aranges
                0x0000000000000060       0x20 ./obj/music_control.o
 .debug_aranges
                0x0000000000000080       0x20 ./../../lib/app_timer_rcode.o
 .debug_aranges
                0x00000000000000a0       0x20 ./../../lib/message_rcode.o
 .debug_aranges
                0x00000000000000c0       0x20 ./obj/music_main.o
 .debug_aranges
                0x00000000000000e0       0x20 ./obj/music_setmenu_soundset_param.o
 .debug_aranges
                0x0000000000000100       0x20 ./../../../psp_rel/lib/ctor.o
 .debug_aranges
                0x0000000000000120       0x20 ./obj/music_scene_playing.o
 .debug_aranges
                0x0000000000000140       0x20 ./obj/music_scene_playing_sub.o
 .debug_aranges
                0x0000000000000160       0x20 ./obj/music_playing_playdeal_sub.o
 .debug_aranges
                0x0000000000000180       0x20 ./obj/music_playing_playdeal.o
 .debug_aranges
                0x00000000000001a0       0x20 ./obj/music_playing_paint.o
 .debug_aranges
                0x00000000000001c0       0x20 ./obj/music_playing_keymsg.o
 .debug_aranges
                0x00000000000001e0       0x20 ./obj/music_playing_getid3.o
 .debug_aranges
                0x0000000000000200       0x20 ./obj/music_scene_listmenu.o
 .debug_aranges
                0x0000000000000220       0x20 ./obj/music_listmenu_listmenu.o
 .debug_aranges
                0x0000000000000240       0x20 ./obj/music_listmenu_menusure.o
 .debug_aranges
                0x0000000000000260       0x20 ./obj/music_listmenu_menuoption.o
 .debug_aranges
                0x0000000000000280       0x20 ./obj/music_listmenu_optionitem.o
 .debug_aranges
                0x00000000000002a0       0x20 ./obj/music_listmenu_listoption.o
 .debug_aranges
                0x00000000000002c0       0x20 ./obj/music_scene_setmenu.o
 .debug_aranges
                0x00000000000002e0       0x20 ./obj/music_setmenu_playmode.o
 .debug_aranges
                0x0000000000000300       0x20 ./obj/music_setmenu_soundset.o
 .debug_aranges
                0x0000000000000320       0x20 ./obj/music_setmenu_otheritem.o
 .debug_aranges
                0x0000000000000340       0x20 ./obj/music_setmenu_audible.o
 .debug_aranges
                0x0000000000000360       0x20 ./obj/music_setmenu_favordeal.o
 .debug_aranges
                0x0000000000000380       0x20 ./obj/music_setmenu_show_cue.o
 .debug_aranges
                0x00000000000003a0       0x20 ./obj/music_ape_cue.o
 .debug_aranges
                0x00000000000003c0       0x20 ./obj/music_add_favorite.o
 .debug_aranges
                0x00000000000003e0       0x20 ./obj/music_add_favorite_sub.o
 .debug_aranges
                0x0000000000000400       0x20 ./obj/music_del_favorite.o
 .debug_aranges
                0x0000000000000420       0x20 ./obj/music_control_bank.o
 .debug_aranges
                0x0000000000000440       0x20 ./obj/music_creat_albumart_file.o
 .debug_aranges
                0x0000000000000460       0x20 ./obj/music_audible_sys.o
 .debug_aranges
                0x0000000000000480       0x20 ./obj/music_setmenu_bookmark_deal_sub.o
 .debug_aranges
                0x00000000000004a0       0x20 ./obj/music_setmenu_bookmark_deal.o
 .debug_aranges
                0x00000000000004c0       0x20 ./obj/music_del_bookmark.o
 .debug_aranges
                0x00000000000004e0       0x20 ./obj/music_create_bookmark.o
 .debug_aranges
                0x0000000000000500       0x20 ./obj/music_setmenu_show_bookmark.o
 .debug_aranges
                0x0000000000000520       0x20 ./obj/music_setmenu_bookmark.o
 .debug_aranges
                0x0000000000000540       0x20 ./obj/music_clear_favorite.o
 .debug_aranges
                0x0000000000000560       0x20 ./obj/music_listmenu_albumlist.o
 .debug_aranges
                0x0000000000000580       0x20 ./obj/music_setmenu_bookmark_rw.o
 .debug_aranges
                0x00000000000005a0       0x20 ./../../../psp_rel/lib/lib_enhanced/eh_module.o
 .debug_aranges
                0x00000000000005c0       0x20 ./../../../psp_rel/lib/api.a(audio_device_op_entry.o)
 .debug_aranges
                0x00000000000005e0       0x20 ./../../../psp_rel/lib/api.a(key_op_entry.o)
 .debug_aranges
                0x0000000000000600       0x20 ./../../../psp_rel/lib/api.a(lcd_op_entry.o)
 .debug_aranges
                0x0000000000000620       0x20 ./../../../psp_rel/lib/api.a(mmm_id_cmd.o)
 .debug_aranges
                0x0000000000000640       0x20 ./../../../psp_rel/lib/api.a(sys_op_entry.o)
 .debug_aranges
                0x0000000000000660       0x20 ./../../../psp_rel/lib/api.a(vfs_op_entry.o)
 .debug_aranges
                0x0000000000000680       0x20 ./../../../psp_rel/lib/api.a(base_op_entry.o)
 .debug_aranges
                0x00000000000006a0       0x20 ./../../../psp_rel/lib/lib_enhanced/eh_change_location.o
 .debug_aranges
                0x00000000000006c0       0x20 ./../../../psp_rel/lib/lib_enhanced/eh_fav_operation.o
 .debug_aranges
                0x00000000000006e0       0x20 ./../../../psp_rel/lib/lib_enhanced/eh_change_fav_location.o
 .debug_aranges
                0x0000000000000700       0x20 ./../../../psp_rel/lib/lib_enhanced/eh_make_listlayer.o
 .debug_aranges
                0x0000000000000720       0x20 ./../../../psp_rel/lib/lib_enhanced/eh_bs_entry.o
 .debug_aranges
                0x0000000000000740       0x20 ./../../../psp_rel/lib/lib_enhanced/eh_bs_function.o
 .debug_aranges
                0x0000000000000760       0x20 ./../../../psp_rel/lib/lib_enhanced/eh_id3_entry.o
 .debug_aranges
                0x0000000000000780       0x20 ./../../../psp_rel/lib/lib_enhanced/eh_id3_aac.o
 .debug_aranges
                0x00000000000007a0       0x20 ./../../../psp_rel/lib/lib_enhanced/eh_id3_function.o
 .debug_aranges
                0x00000000000007c0       0x20 ./../../../psp_rel/lib/lib_enhanced/eh_lyric_get.o
 .debug_aranges
                0x00000000000007e0       0x20 ./../../../psp_rel/lib/lib_enhanced/eh_fsel_entry.o
 .debug_aranges
                0x0000000000000800       0x20 ./../../../psp_rel/lib/lib_enhanced/eh_fsel_function.o
 .debug_aranges
                0x0000000000000820       0x20 ./../../../psp_rel/lib/lib_enhanced/eh_cue_load.o
 .debug_aranges
                0x0000000000000840       0x20 ./../../../psp_rel/lib/lib_enhanced/eh_module_sub.o
 .debug_aranges
                0x0000000000000860       0x20 ./../../../psp_rel/lib/lib_enhanced/eh_fav_operation_sub.o
 .debug_aranges
                0x0000000000000880       0x20 ./../../../psp_rel/lib/lib_enhanced/eh_change_location_sub.o
 .debug_aranges
                0x00000000000008a0       0x20 ./../../../psp_rel/lib/lib_enhanced/eh_fav_operation_sub2.o
 .debug_aranges
                0x00000000000008c0       0x20 ./../../../psp_rel/lib/lib_enhanced/eh_make_listlayer_sub.o
 .debug_aranges
                0x00000000000008e0       0x20 ./../../../psp_rel/lib/lib_enhanced/eh_bs_directory.o
 .debug_aranges
                0x0000000000000900       0x20 ./../../../psp_rel/lib/lib_enhanced/eh_bs_directory_func.o
 .debug_aranges
                0x0000000000000920       0x20 ./../../../psp_rel/lib/lib_enhanced/eh_bs_favorite.o
 .debug_aranges
                0x0000000000000940       0x20 ./../../../psp_rel/lib/lib_enhanced/eh_bs_favorite_func.o
 .debug_aranges
                0x0000000000000960       0x20 ./../../../psp_rel/lib/lib_enhanced/eh_bs_playlist.o
 .debug_aranges
                0x0000000000000980       0x20 ./../../../psp_rel/lib/lib_enhanced/eh_bs_playlist_func.o
 .debug_aranges
                0x00000000000009a0       0x20 ./../../../psp_rel/lib/lib_enhanced/eh_bs_playlist_del.o
 .debug_aranges
                0x00000000000009c0       0x20 ./../../../psp_rel/lib/lib_enhanced/eh_bs_other_deal.o
 .debug_aranges
                0x00000000000009e0       0x20 ./../../../psp_rel/lib/lib_enhanced/eh_bs_playlist2.o
 .debug_aranges
                0x0000000000000a00       0x20 ./../../../psp_rel/lib/lib_enhanced/eh_bs_function_sub.o
 .debug_aranges
                0x0000000000000a20       0x20 ./../../../psp_rel/lib/lib_enhanced/eh_bs_browser.o
 .debug_aranges
                0x0000000000000a40       0x20 ./../../../psp_rel/lib/lib_enhanced/eh_bs_browser_func.o
 .debug_aranges
                0x0000000000000a60       0x20 ./../../../psp_rel/lib/lib_enhanced/eh_id3_mp3_v1.o
 .debug_aranges
                0x0000000000000a80       0x20 ./../../../psp_rel/lib/lib_enhanced/eh_id3_mp3_v2.o
 .debug_aranges
                0x0000000000000aa0       0x20 ./../../../psp_rel/lib/lib_enhanced/eh_id3_wma.o
 .debug_aranges
                0x0000000000000ac0       0x20 ./../../../psp_rel/lib/lib_enhanced/eh_id3_ape.o
 .debug_aranges
                0x0000000000000ae0       0x20 ./../../../psp_rel/lib/lib_enhanced/eh_id3_flac.o
 .debug_aranges
                0x0000000000000b00       0x20 ./../../../psp_rel/lib/lib_enhanced/eh_id3_ogg.o
 .debug_aranges
                0x0000000000000b20       0x20 ./../../../psp_rel/lib/lib_enhanced/eh_id3_aa.o
 .debug_aranges
                0x0000000000000b40       0x20 ./../../../psp_rel/lib/lib_enhanced/eh_id3_aax.o
 .debug_aranges
                0x0000000000000b60       0x20 ./../../../psp_rel/lib/lib_enhanced/eh_id3_function_sub.o
 .debug_aranges
                0x0000000000000b80       0x20 ./../../../psp_rel/lib/lib_enhanced/eh_id3_utf8_deal.o
 .debug_aranges
                0x0000000000000ba0       0x20 ./../../../psp_rel/lib/lib_enhanced/eh_fsel_directory_next.o
 .debug_aranges
                0x0000000000000bc0       0x20 ./../../../psp_rel/lib/lib_enhanced/eh_fsel_directory_prev.o
 .debug_aranges
                0x0000000000000be0       0x20 ./../../../psp_rel/lib/lib_enhanced/eh_fsel_directory_func.o
 .debug_aranges
                0x0000000000000c00       0x20 ./../../../psp_rel/lib/lib_enhanced/eh_fsel_favorite_sel.o
 .debug_aranges
                0x0000000000000c20       0x20 ./../../../psp_rel/lib/lib_enhanced/eh_fsel_favorite_func.o
 .debug_aranges
                0x0000000000000c40       0x20 ./../../../psp_rel/lib/lib_enhanced/eh_fsel_shuffle.o
 .debug_aranges
                0x0000000000000c60       0x20 ./../../../psp_rel/lib/lib_enhanced/eh_fsel_playlist_sel.o
 .debug_aranges
                0x0000000000000c80       0x20 ./../../../psp_rel/lib/lib_enhanced/eh_fsel_playlist_func.o
 .debug_aranges
                0x0000000000000ca0       0x20 ./../../../psp_rel/lib/lib_enhanced/eh_fsel_playlist_del.o
 .debug_aranges
                0x0000000000000cc0       0x20 ./../../../psp_rel/lib/lib_enhanced/eh_fsel_shuffle2.o
 .debug_aranges
                0x0000000000000ce0       0x20 ./../../../psp_rel/lib/lib_enhanced/eh_fsel_function_sub.o
 .debug_aranges
                0x0000000000000d00       0x20 ./../../../psp_rel/lib/lib_enhanced/eh_fsel_browser_prev.o
 .debug_aranges
                0x0000000000000d20       0x20 ./../../../psp_rel/lib/lib_enhanced/eh_fsel_browser_next.o
 .debug_aranges
                0x0000000000000d40       0x20 ./../../../psp_rel/lib/lib_enhanced/eh_fsel_browser_function.o
 .debug_aranges
                0x0000000000000d60       0x20 ./../../../psp_rel/lib/lib_enhanced/eh_cue_load_sub1.o
 .debug_aranges
                0x0000000000000d80       0x20 ./../../../psp_rel/lib/lib_enhanced/eh_cue_load_sub2.o
 .debug_aranges
                0x0000000000000da0       0x20 ./../../lib/ui_directory.o
 .debug_aranges
                0x0000000000000dc0       0x20 ./../../lib/ui_menulist.o
 .debug_aranges
                0x0000000000000de0       0x20 ./../../lib/ui_menulist2.o
 .debug_aranges
                0x0000000000000e00       0x20 ./../../lib/ui_menulist_simple.o
 .debug_aranges
                0x0000000000000e20       0x20 ./../../lib/ui_directory2.o
 .debug_aranges
                0x0000000000000e40       0x20 ./../../lib/ui_parameter.o
 .debug_aranges
                0x0000000000000e60       0x20 ./../../lib/ui_textread.o
 .debug_aranges
                0x0000000000000e80       0x20 ./../../lib/setting_comval.o
 .debug_aranges
                0x0000000000000ea0       0x20 ./../../lib/common_setdae_init.o
 .debug_aranges
                0x0000000000000ec0       0x20 ./../../lib/app_manager_bank.o
 .debug_aranges
                0x0000000000000ee0       0x20 ./../../lib/app_timer_bank.o
 .debug_aranges
                0x0000000000000f00       0x20 ./../../lib/ui_headbar.o
 .debug_aranges
                0x0000000000000f20       0x20 ./../../lib/message_bank_init.o
 .debug_aranges
                0x0000000000000f40       0x20 ./../../lib/message_bank_send.o
 .debug_aranges
                0x0000000000000f60       0x20 ./../../lib/message_bank_broadcast.o
 .debug_aranges
                0x0000000000000f80       0x20 ./../../lib/common_config.o
 .debug_aranges
                0x0000000000000fa0       0x20 ./../../lib/common_msgmap.o
 .debug_aranges
                0x0000000000000fc0       0x20 ./../../lib/common_confmenu.o
 .debug_aranges
                0x0000000000000fe0       0x20 ./../../lib/common_history.o
 .debug_aranges
                0x0000000000001000       0x20 ./../../lib/common_string.o
 .debug_aranges
                0x0000000000001020       0x20 ./../../lib/common_string2.o
 .debug_aranges
                0x0000000000001040       0x20 ./../../lib/common_key.o
 .debug_aranges
                0x0000000000001060       0x20 ./../../lib/common_msg.o
 .debug_aranges
                0x0000000000001080       0x20 ./../../lib/common_sound.o
 .debug_aranges
                0x00000000000010a0       0x20 ./../../lib/ui_directory_sub.o
 .debug_aranges
                0x00000000000010c0       0x20 ./../../lib/ui_directory_sub2.o
 .debug_aranges
                0x00000000000010e0       0x20 ./../../lib/ui_menulist_sub.o
 .debug_aranges
                0x0000000000001100       0x20 ./../../lib/ui_menulist_sub2.o
 .debug_aranges
                0x0000000000001120       0x20 ./../../lib/ui_textread_dec.o
 .debug_aranges
                0x0000000000001140       0x20 ./../../lib/ui_textread_sub.o
 .debug_aranges
                0x0000000000001160       0x20 ./../../lib/ui_delete.o
 .debug_aranges
                0x0000000000001180       0x20 ./../../lib/ui_delete_sub.o
 .debug_aranges
                0x00000000000011a0       0x20 ./../../lib/ui_keylock.o
 .debug_aranges
                0x00000000000011c0       0x20 ./../../lib/ui_shutoff.o
 .debug_aranges
                0x00000000000011e0       0x20 ./../../lib/ui_screensave.o
 .debug_aranges
                0x0000000000001200       0x20 ./../../lib/ui_screensave_sub.o
 .debug_aranges
                0x0000000000001220       0x20 ./../../lib/ui_animation.o
 .debug_aranges
                0x0000000000001240       0x20 ./../../lib/ui_volumebar.o
 .debug_aranges
                0x0000000000001260       0x20 ./../../lib/ui_volumebar_sub.o
 .debug_aranges
                0x0000000000001280       0x20 ./../../lib/ui_dialog.o
 .debug_aranges
                0x00000000000012a0       0x20 ./../../lib/ui_usbconnect.o
 .debug_aranges
                0x00000000000012c0       0x20 ./../../lib/miscellaneous.o
 .debug_aranges
                0x00000000000012e0       0x20 ./../../lib/app_sleep.o
 .debug_aranges
                0x0000000000001300       0x20 ./../../lib/sys_timer.o
 .debug_aranges
                0x0000000000001320       0x20 ./../../lib/sys_counter.o
 .debug_aranges
                0x0000000000001340       0x20 ./../../lib/common_charge.o
 .debug_aranges
                0x0000000000001360       0x20 ./../../lib/ui_headbar_handle.o
 .debug_aranges
                0x0000000000001380       0x20 ./../../lib/message_box.o
 .debug_aranges
                0x00000000000013a0       0x20 ./../../lib/alarm_msg_dispatch.o
 .debug_aranges
                0x00000000000013c0       0x20 ./../../lib/alarm_msg_dispatch2.o
 .debug_aranges
                0x00000000000013e0       0x20 ./../../lib/antenna_detect.o
 .debug_aranges
                0x0000000000001400       0x20 ./../../lib/common_phy_volume_deal.o
 .debug_aranges
                0x0000000000001420       0x20 ./../../lib/common_keytone_play.o

.debug_ranges   0x0000000000000000       0xd0
 .debug_ranges  0x0000000000000000       0x58 ./../../../psp_rel/lib/lib_enhanced/eh_bs_function.o
 .debug_ranges  0x0000000000000058       0x58 ./../../../psp_rel/lib/lib_enhanced/eh_bs_playlist_func.o
 .debug_ranges  0x00000000000000b0       0x20 ./../../lib/app_timer_bank.o
